---
triple:          'arm64-apple-darwin'
binary-path:     '/Users/nightowl/Desktop/console-rpg/game'
relocations:
  - { offsetInCU: 0x3F, offset: 0x3F, size: 0x8, addend: 0x0, symName: _game_running, symObjAddr: 0xD908, symBinAddr: 0x100014000, symSize: 0x0 }
  - { offsetInCU: 0x5B, offset: 0x5B, size: 0x8, addend: 0x0, symName: _awaiting_input, symObjAddr: 0xD909, symBinAddr: 0x100014001, symSize: 0x0 }
  - { offsetInCU: 0x70, offset: 0x70, size: 0x8, addend: 0x0, symName: _input_holder, symObjAddr: 0x6C1D0, symBinAddr: 0x100014008, symSize: 0x0 }
  - { offsetInCU: 0x3927, offset: 0x3927, size: 0x8, addend: 0x0, symName: __ZNSt3__16chronossB8ue170006IxNS_5ratioILl1ELl1000EEExS3_EEDaRKNS0_8durationIT_T0_EERKNS5_IT1_T2_EE, symObjAddr: 0xC480, symBinAddr: 0x10000D758, symSize: 0x8C }
  - { offsetInCU: 0x3994, offset: 0x3994, size: 0x8, addend: 0x0, symName: __ZNSt3__16chronossB8ue170006IxNS_5ratioILl1ELl1000EEEeNS2_ILl1ELl1EEEEEDaRKNS0_8durationIT_T0_EERKNS6_IT1_T2_EE, symObjAddr: 0xC5D0, symBinAddr: 0x10000D8A8, symSize: 0xB4 }
  - { offsetInCU: 0x40B2, offset: 0x40B2, size: 0x8, addend: 0x0, symName: __ZNSt3__16chronossB8ue170006IxNS_5ratioILl1ELl1000000000EEExNS2_ILl1ELl1000EEEEEDaRKNS0_8durationIT_T0_EERKNS6_IT1_T2_EE, symObjAddr: 0xC6D8, symBinAddr: 0x10000D9B0, symSize: 0x94 }
  - { offsetInCU: 0x412E, offset: 0x412E, size: 0x8, addend: 0x0, symName: __ZNSt3__16chrono13duration_castB8ue170006INS0_8durationIxNS_5ratioILl1ELl1000000000EEEEExNS3_ILl1ELl1000EEEEENS_9enable_ifIXsr13__is_durationIT_EE5valueES8_E4typeERKNS2_IT0_T1_EE, symObjAddr: 0xC684, symBinAddr: 0x10000D95C, symSize: 0x30 }
  - { offsetInCU: 0x41B5, offset: 0x41B5, size: 0x8, addend: 0x0, symName: __ZNSt3__16chrono13duration_castB8ue170006INS0_8durationIeNS_5ratioILl1ELl1000EEEEExS4_EENS_9enable_ifIXsr13__is_durationIT_EE5valueES7_E4typeERKNS2_IT0_T1_EE, symObjAddr: 0xC960, symBinAddr: 0x10000DC38, symSize: 0x30 }
  - { offsetInCU: 0x4247, offset: 0x4247, size: 0x8, addend: 0x0, symName: __ZNSt3__16chrono13duration_castB8ue170006INS0_8durationIeNS_5ratioILl1ELl1000EEEEEeNS3_ILl1ELl1EEEEENS_9enable_ifIXsr13__is_durationIT_EE5valueES8_E4typeERKNS2_IT0_T1_EE, symObjAddr: 0xCA80, symBinAddr: 0x10000DD58, symSize: 0x30 }
  - { offsetInCU: 0x6A7D, offset: 0x6A7D, size: 0x8, addend: 0x0, symName: __ZNSt3__17advanceB8ue170006IP8DialoguellvEEvRT_T0_, symObjAddr: 0x4BA8, symBinAddr: 0x100005E80, symSize: 0x38 }
  - { offsetInCU: 0x7F0E, offset: 0x7F0E, size: 0x8, addend: 0x0, symName: __ZNSt3__17advanceB8ue170006IP14QuestionOptionllvEEvRT_T0_, symObjAddr: 0x6390, symBinAddr: 0x100007668, symSize: 0x38 }
  - { offsetInCU: 0x9441, offset: 0x9441, size: 0x8, addend: 0x0, symName: __ZNSt3__17advanceB8ue170006IP8QuestionllvEEvRT_T0_, symObjAddr: 0x7F94, symBinAddr: 0x10000926C, symSize: 0x38 }
  - { offsetInCU: 0x98D7, offset: 0x98D7, size: 0x8, addend: 0x0, symName: __ZNSt3__17advanceB8ue170006IP6ChoicellvEEvRT_T0_, symObjAddr: 0x97E4, symBinAddr: 0x10000AABC, symSize: 0x38 }
  - { offsetInCU: 0xAC69, offset: 0xAC69, size: 0x8, addend: 0x0, symName: __ZNSt3__17advanceB8ue170006IP10ChoiceMenullvEEvRT_T0_, symObjAddr: 0xB410, symBinAddr: 0x10000C6E8, symSize: 0x38 }
  - { offsetInCU: 0xACD4, offset: 0xACD4, size: 0x8, addend: 0x0, symName: __ZNSt3__124__put_character_sequenceB8ue170006IcNS_11char_traitsIcEEEERNS_13basic_ostreamIT_T0_EES7_PKS4_m, symObjAddr: 0xB928, symBinAddr: 0x10000CC00, symSize: 0x1EC }
  - { offsetInCU: 0xD09A, offset: 0xD09A, size: 0x8, addend: 0x0, symName: __ZNSt3__1lsB8ue170006IcNS_11char_traitsIcEENS_9allocatorIcEEEERNS_13basic_ostreamIT_T0_EES9_RKNS_12basic_stringIS6_S7_T1_EE, symObjAddr: 0x44, symBinAddr: 0x10000131C, symSize: 0x4C }
  - { offsetInCU: 0xD0F2, offset: 0xD0F2, size: 0x8, addend: 0x0, symName: __ZNSt3__1lsB8ue170006INS_11char_traitsIcEEEERNS_13basic_ostreamIcT_EES6_PKc, symObjAddr: 0x90, symBinAddr: 0x100001368, symSize: 0x48 }
  - { offsetInCU: 0xD138, offset: 0xD138, size: 0x8, addend: 0x0, symName: __ZNSt3__14endlB8ue170006IcNS_11char_traitsIcEEEERNS_13basic_ostreamIT_T0_EES7_, symObjAddr: 0x104, symBinAddr: 0x1000013DC, symSize: 0x58 }
  - { offsetInCU: 0xD17D, offset: 0xD17D, size: 0x8, addend: 0x0, symName: __ZNSt3__111this_thread9sleep_forB8ue170006IxNS_5ratioILl1ELl1000EEEEEvRKNS_6chrono8durationIT_T0_EE, symObjAddr: 0x5BC, symBinAddr: 0x100001894, symSize: 0x110 }
  - { offsetInCU: 0xD1FE, offset: 0xD1FE, size: 0x8, addend: 0x0, symName: __ZNSt3__1neB8ue170006IPK8DialogueEEbRKNS_11__wrap_iterIT_EES8_, symObjAddr: 0x850, symBinAddr: 0x100001B28, symSize: 0x34 }
  - { offsetInCU: 0xD241, offset: 0xD241, size: 0x8, addend: 0x0, symName: __ZNSt3__1neB8ue170006IPK6ChoiceEEbRKNS_11__wrap_iterIT_EES8_, symObjAddr: 0xAD8, symBinAddr: 0x100001DB0, symSize: 0x34 }
  - { offsetInCU: 0xD284, offset: 0xD284, size: 0x8, addend: 0x0, symName: __ZNSt3__1lsB8ue170006INS_11char_traitsIcEEEERNS_13basic_ostreamIcT_EES6_c, symObjAddr: 0xB24, symBinAddr: 0x100001DFC, symSize: 0x34 }
  - { offsetInCU: 0xD2CA, offset: 0xD2CA, size: 0x8, addend: 0x0, symName: __ZNSt3__1neB8ue170006IP8QuestionEEbRKNS_11__wrap_iterIT_EES7_, symObjAddr: 0x22F0, symBinAddr: 0x1000035C8, symSize: 0x34 }
  - { offsetInCU: 0xD30D, offset: 0xD30D, size: 0x8, addend: 0x0, symName: __ZNSt3__1rsB8ue170006IcNS_11char_traitsIcEENS_9allocatorIcEEEERNS_13basic_istreamIT_T0_EES9_RNS_12basic_stringIS6_S7_T1_EE, symObjAddr: 0x2E10, symBinAddr: 0x1000040E8, symSize: 0x30C }
  - { offsetInCU: 0xD3DA, offset: 0xD3DA, size: 0x8, addend: 0x0, symName: __ZNSt3__1eqB8ue170006IPK8DialogueEEbRKNS_11__wrap_iterIT_EES8_, symObjAddr: 0x3418, symBinAddr: 0x1000046F0, symSize: 0x48 }
  - { offsetInCU: 0xD41D, offset: 0xD41D, size: 0x8, addend: 0x0, symName: __ZNSt3__1eqB8ue170006IPK6ChoiceEEbRKNS_11__wrap_iterIT_EES8_, symObjAddr: 0x34FC, symBinAddr: 0x1000047D4, symSize: 0x48 }
  - { offsetInCU: 0xD460, offset: 0xD460, size: 0x8, addend: 0x0, symName: __ZNSt3__118__constexpr_strlenB8ue170006EPKc, symObjAddr: 0x35E8, symBinAddr: 0x1000048C0, symSize: 0x24 }
  - { offsetInCU: 0xD48C, offset: 0xD48C, size: 0x8, addend: 0x0, symName: __ZNSt3__122__make_exception_guardB8ue170006INS_6vectorI8DialogueNS_9allocatorIS2_EEE16__destroy_vectorEEENS_28__exception_guard_exceptionsIT_EES8_, symObjAddr: 0x37A0, symBinAddr: 0x100004A78, symSize: 0x40 }
  - { offsetInCU: 0xD4C1, offset: 0xD4C1, size: 0x8, addend: 0x0, symName: __ZNSt3__119__allocate_at_leastB8ue170006INS_9allocatorI8DialogueEEEENS_19__allocation_resultINS_16allocator_traitsIT_E7pointerEEERS6_m, symObjAddr: 0x3BB0, symBinAddr: 0x100004E88, symSize: 0x40 }
  - { offsetInCU: 0xD504, offset: 0xD504, size: 0x8, addend: 0x0, symName: __ZNSt3__13minB8ue170006ImEERKT_S3_S3_, symObjAddr: 0x3D08, symBinAddr: 0x100004FE0, symSize: 0x2C }
  - { offsetInCU: 0xD731, offset: 0xD731, size: 0x8, addend: 0x0, symName: __ZNSt3__13minB8ue170006ImNS_6__lessIvvEEEERKT_S5_S5_T0_, symObjAddr: 0x3D98, symBinAddr: 0x100005070, symSize: 0x54 }
  - { offsetInCU: 0xD9BC, offset: 0xD9BC, size: 0x8, addend: 0x0, symName: __ZNSt3__120__throw_length_errorB8ue170006EPKc, symObjAddr: 0x3E7C, symBinAddr: 0x100005154, symSize: 0x64 }
  - { offsetInCU: 0xD9E6, offset: 0xD9E6, size: 0x8, addend: 0x0, symName: __ZNSt3__117__libcpp_allocateB8ue170006Emm, symObjAddr: 0x3FF0, symBinAddr: 0x1000052C8, symSize: 0x60 }
  - { offsetInCU: 0xDA40, offset: 0xDA40, size: 0x8, addend: 0x0, symName: __ZNSt3__124__is_overaligned_for_newB8ue170006Em, symObjAddr: 0x4050, symBinAddr: 0x100005328, symSize: 0x20 }
  - { offsetInCU: 0xDA6E, offset: 0xDA6E, size: 0x8, addend: 0x0, symName: __ZNSt3__121__libcpp_operator_newB8ue170006IJmSt11align_val_tEEEPvDpT_, symObjAddr: 0x4070, symBinAddr: 0x100005348, symSize: 0x2C }
  - { offsetInCU: 0xDABB, offset: 0xDABB, size: 0x8, addend: 0x0, symName: __ZNSt3__121__libcpp_operator_newB8ue170006IJmEEEPvDpT_, symObjAddr: 0x409C, symBinAddr: 0x100005374, symSize: 0x24 }
  - { offsetInCU: 0xDAF4, offset: 0xDAF4, size: 0x8, addend: 0x0, symName: __ZNSt3__112__to_addressB8ue170006I8DialogueEEPT_S3_, symObjAddr: 0x41B8, symBinAddr: 0x100005490, symSize: 0x14 }
  - { offsetInCU: 0xDB29, offset: 0xDB29, size: 0x8, addend: 0x0, symName: __ZNSt3__130__uninitialized_allocator_copyB8ue170006INS_9allocatorI8DialogueEEPKS2_S5_PS2_EET2_RT_T0_T1_S7_, symObjAddr: 0x4268, symBinAddr: 0x100005540, symSize: 0x80 }
  - { offsetInCU: 0xDBC6, offset: 0xDBC6, size: 0x8, addend: 0x0, symName: __ZNSt3__114__unwrap_rangeB8ue170006IPK8DialogueS3_EEDaT_T0_, symObjAddr: 0x4360, symBinAddr: 0x100005638, symSize: 0x3C }
  - { offsetInCU: 0xDC12, offset: 0xDC12, size: 0x8, addend: 0x0, symName: __ZNSt3__135__uninitialized_allocator_copy_implB8ue170006INS_9allocatorI8DialogueEEPKS2_S5_PS2_EET2_RT_T0_T1_S7_, symObjAddr: 0x439C, symBinAddr: 0x100005674, symSize: 0xF4 }
  - { offsetInCU: 0xDCB0, offset: 0xDCB0, size: 0x8, addend: 0x0, symName: __ZNSt3__113__unwrap_iterB8ue170006IP8DialogueNS_18__unwrap_iter_implIS2_Lb1EEELi0EEEDTclsrT0_8__unwrapclsr3stdE7declvalIT_EEEES6_, symObjAddr: 0x4490, symBinAddr: 0x100005768, symSize: 0x24 }
  - { offsetInCU: 0xDCF4, offset: 0xDCF4, size: 0x8, addend: 0x0, symName: __ZNSt3__113__rewrap_iterB8ue170006IP8DialogueS2_NS_18__unwrap_iter_implIS2_Lb1EEEEET_S5_T0_, symObjAddr: 0x44B4, symBinAddr: 0x10000578C, symSize: 0x3C }
  - { offsetInCU: 0xDE4B, offset: 0xDE4B, size: 0x8, addend: 0x0, symName: __ZNSt3__113__unwrap_iterB8ue170006IPK8DialogueNS_18__unwrap_iter_implIS3_Lb1EEELi0EEEDTclsrT0_8__unwrapclsr3stdE7declvalIT_EEEES7_, symObjAddr: 0x4548, symBinAddr: 0x100005820, symSize: 0x24 }
  - { offsetInCU: 0xDEE2, offset: 0xDEE2, size: 0x8, addend: 0x0, symName: __ZNSt3__112__to_addressB8ue170006IK8DialogueEEPT_S4_, symObjAddr: 0x45CC, symBinAddr: 0x1000058A4, symSize: 0x14 }
  - { offsetInCU: 0xDF17, offset: 0xDF17, size: 0x8, addend: 0x0, symName: __ZNSt3__122__make_exception_guardB8ue170006INS_29_AllocatorDestroyRangeReverseINS_9allocatorI8DialogueEEPS3_EEEENS_28__exception_guard_exceptionsIT_EES8_, symObjAddr: 0x4614, symBinAddr: 0x1000058EC, symSize: 0x4C }
  - { offsetInCU: 0xDF72, offset: 0xDF72, size: 0x8, addend: 0x0, symName: __ZNSt3__112construct_atB8ue170006I8DialogueJRKS1_EPS1_EEPT_S6_DpOT0_, symObjAddr: 0x47B8, symBinAddr: 0x100005A90, symSize: 0x3C }
  - { offsetInCU: 0xDFE2, offset: 0xDFE2, size: 0x8, addend: 0x0, symName: __ZNSt3__119__allocator_destroyB8ue170006INS_9allocatorI8DialogueEENS_16reverse_iteratorIPS2_EES6_EEvRT_T0_T1_, symObjAddr: 0x4950, symBinAddr: 0x100005C28, symSize: 0x70 }
  - { offsetInCU: 0xE045, offset: 0xE045, size: 0x8, addend: 0x0, symName: __ZNSt3__1neB8ue170006IP8DialogueS2_EEbRKNS_16reverse_iteratorIT_EERKNS3_IT0_EE, symObjAddr: 0x49F4, symBinAddr: 0x100005CCC, symSize: 0x48 }
  - { offsetInCU: 0xE091, offset: 0xE091, size: 0x8, addend: 0x0, symName: __ZNSt3__112__to_addressB8ue170006INS_16reverse_iteratorIP8DialogueEEvEEu7__decayIDTclsr19__to_address_helperIT_EE6__callclsr3stdE7declvalIRKS5_EEEEES7_, symObjAddr: 0x4A64, symBinAddr: 0x100005D3C, symSize: 0x24 }
  - { offsetInCU: 0xE0C7, offset: 0xE0C7, size: 0x8, addend: 0x0, symName: __ZNSt3__110destroy_atB8ue170006I8DialogueLi0EEEvPT_, symObjAddr: 0x4AC0, symBinAddr: 0x100005D98, symSize: 0x24 }
  - { offsetInCU: 0xE0FE, offset: 0xE0FE, size: 0x8, addend: 0x0, symName: __ZNSt3__112__destroy_atB8ue170006I8DialogueLi0EEEvPT_, symObjAddr: 0x4AE4, symBinAddr: 0x100005DBC, symSize: 0x24 }
  - { offsetInCU: 0xE15E, offset: 0xE15E, size: 0x8, addend: 0x0, symName: __ZNSt3__14prevB8ue170006IP8DialogueEENS_9enable_ifIXsr29__has_input_iterator_categoryIT_EE5valueES4_E4typeES4_NS_15iterator_traitsIS4_E15difference_typeE, symObjAddr: 0x4B6C, symBinAddr: 0x100005E44, symSize: 0x3C }
  - { offsetInCU: 0xE1A1, offset: 0xE1A1, size: 0x8, addend: 0x0, symName: __ZNSt3__121__convert_to_integralB8ue170006El, symObjAddr: 0x4BE0, symBinAddr: 0x100005EB8, symSize: 0x14 }
  - { offsetInCU: 0xE1CD, offset: 0xE1CD, size: 0x8, addend: 0x0, symName: __ZNSt3__19__advanceB8ue170006IP8DialogueEEvRT_NS_15iterator_traitsIS3_E15difference_typeENS_26random_access_iterator_tagE, symObjAddr: 0x4BF4, symBinAddr: 0x100005ECC, symSize: 0x30 }
  - { offsetInCU: 0xE269, offset: 0xE269, size: 0x8, addend: 0x0, symName: __ZNSt3__119__libcpp_deallocateB8ue170006EPvmm, symObjAddr: 0x4FF0, symBinAddr: 0x1000062C8, symSize: 0x60 }
  - { offsetInCU: 0xE2CE, offset: 0xE2CE, size: 0x8, addend: 0x0, symName: __ZNSt3__127__do_deallocate_handle_sizeB8ue170006IJSt11align_val_tEEEvPvmDpT_, symObjAddr: 0x5050, symBinAddr: 0x100006328, symSize: 0x30 }
  - { offsetInCU: 0xE321, offset: 0xE321, size: 0x8, addend: 0x0, symName: __ZNSt3__127__do_deallocate_handle_sizeB8ue170006IJEEEvPvmDpT_, symObjAddr: 0x5080, symBinAddr: 0x100006358, symSize: 0x28 }
  - { offsetInCU: 0xE35F, offset: 0xE35F, size: 0x8, addend: 0x0, symName: __ZNSt3__124__libcpp_operator_deleteB8ue170006IJPvSt11align_val_tEEEvDpT_, symObjAddr: 0x50A8, symBinAddr: 0x100006380, symSize: 0x2C }
  - { offsetInCU: 0xE3A8, offset: 0xE3A8, size: 0x8, addend: 0x0, symName: __ZNSt3__124__libcpp_operator_deleteB8ue170006IJPvEEEvDpT_, symObjAddr: 0x50D4, symBinAddr: 0x1000063AC, symSize: 0x24 }
  - { offsetInCU: 0xE3DD, offset: 0xE3DD, size: 0x8, addend: 0x0, symName: __ZNSt3__122__make_exception_guardB8ue170006INS_6vectorI14QuestionOptionNS_9allocatorIS2_EEE16__destroy_vectorEEENS_28__exception_guard_exceptionsIT_EES8_, symObjAddr: 0x52C0, symBinAddr: 0x100006598, symSize: 0x40 }
  - { offsetInCU: 0xE412, offset: 0xE412, size: 0x8, addend: 0x0, symName: __ZNSt3__119__allocate_at_leastB8ue170006INS_9allocatorI14QuestionOptionEEEENS_19__allocation_resultINS_16allocator_traitsIT_E7pointerEEERS6_m, symObjAddr: 0x56C0, symBinAddr: 0x100006998, symSize: 0x40 }
  - { offsetInCU: 0xE455, offset: 0xE455, size: 0x8, addend: 0x0, symName: __ZNSt3__112__to_addressB8ue170006I14QuestionOptionEEPT_S3_, symObjAddr: 0x59D4, symBinAddr: 0x100006CAC, symSize: 0x14 }
  - { offsetInCU: 0xE48A, offset: 0xE48A, size: 0x8, addend: 0x0, symName: __ZNSt3__130__uninitialized_allocator_copyB8ue170006INS_9allocatorI14QuestionOptionEEPKS2_S5_PS2_EET2_RT_T0_T1_S7_, symObjAddr: 0x5A84, symBinAddr: 0x100006D5C, symSize: 0x80 }
  - { offsetInCU: 0xE527, offset: 0xE527, size: 0x8, addend: 0x0, symName: __ZNSt3__114__unwrap_rangeB8ue170006IPK14QuestionOptionS3_EEDaT_T0_, symObjAddr: 0x5B74, symBinAddr: 0x100006E4C, symSize: 0x3C }
  - { offsetInCU: 0xE573, offset: 0xE573, size: 0x8, addend: 0x0, symName: __ZNSt3__135__uninitialized_allocator_copy_implB8ue170006INS_9allocatorI14QuestionOptionEEPKS2_S5_PS2_EET2_RT_T0_T1_S7_, symObjAddr: 0x5BB0, symBinAddr: 0x100006E88, symSize: 0xF4 }
  - { offsetInCU: 0xE611, offset: 0xE611, size: 0x8, addend: 0x0, symName: __ZNSt3__113__unwrap_iterB8ue170006IP14QuestionOptionNS_18__unwrap_iter_implIS2_Lb1EEELi0EEEDTclsrT0_8__unwrapclsr3stdE7declvalIT_EEEES6_, symObjAddr: 0x5CA4, symBinAddr: 0x100006F7C, symSize: 0x24 }
  - { offsetInCU: 0xE655, offset: 0xE655, size: 0x8, addend: 0x0, symName: __ZNSt3__113__rewrap_iterB8ue170006IP14QuestionOptionS2_NS_18__unwrap_iter_implIS2_Lb1EEEEET_S5_T0_, symObjAddr: 0x5CC8, symBinAddr: 0x100006FA0, symSize: 0x3C }
  - { offsetInCU: 0xE7AC, offset: 0xE7AC, size: 0x8, addend: 0x0, symName: __ZNSt3__113__unwrap_iterB8ue170006IPK14QuestionOptionNS_18__unwrap_iter_implIS3_Lb1EEELi0EEEDTclsrT0_8__unwrapclsr3stdE7declvalIT_EEEES7_, symObjAddr: 0x5D5C, symBinAddr: 0x100007034, symSize: 0x24 }
  - { offsetInCU: 0xE843, offset: 0xE843, size: 0x8, addend: 0x0, symName: __ZNSt3__112__to_addressB8ue170006IK14QuestionOptionEEPT_S4_, symObjAddr: 0x5DE0, symBinAddr: 0x1000070B8, symSize: 0x14 }
  - { offsetInCU: 0xE878, offset: 0xE878, size: 0x8, addend: 0x0, symName: __ZNSt3__122__make_exception_guardB8ue170006INS_29_AllocatorDestroyRangeReverseINS_9allocatorI14QuestionOptionEEPS3_EEEENS_28__exception_guard_exceptionsIT_EES8_, symObjAddr: 0x5E28, symBinAddr: 0x100007100, symSize: 0x4C }
  - { offsetInCU: 0xE8D3, offset: 0xE8D3, size: 0x8, addend: 0x0, symName: __ZNSt3__112construct_atB8ue170006I14QuestionOptionJRKS1_EPS1_EEPT_S6_DpOT0_, symObjAddr: 0x5FCC, symBinAddr: 0x1000072A4, symSize: 0x3C }
  - { offsetInCU: 0xE943, offset: 0xE943, size: 0x8, addend: 0x0, symName: __ZNSt3__119__allocator_destroyB8ue170006INS_9allocatorI14QuestionOptionEENS_16reverse_iteratorIPS2_EES6_EEvRT_T0_T1_, symObjAddr: 0x6138, symBinAddr: 0x100007410, symSize: 0x70 }
  - { offsetInCU: 0xE9A6, offset: 0xE9A6, size: 0x8, addend: 0x0, symName: __ZNSt3__1neB8ue170006IP14QuestionOptionS2_EEbRKNS_16reverse_iteratorIT_EERKNS3_IT0_EE, symObjAddr: 0x61DC, symBinAddr: 0x1000074B4, symSize: 0x48 }
  - { offsetInCU: 0xE9F2, offset: 0xE9F2, size: 0x8, addend: 0x0, symName: __ZNSt3__112__to_addressB8ue170006INS_16reverse_iteratorIP14QuestionOptionEEvEEu7__decayIDTclsr19__to_address_helperIT_EE6__callclsr3stdE7declvalIRKS5_EEEEES7_, symObjAddr: 0x624C, symBinAddr: 0x100007524, symSize: 0x24 }
  - { offsetInCU: 0xEA28, offset: 0xEA28, size: 0x8, addend: 0x0, symName: __ZNSt3__110destroy_atB8ue170006I14QuestionOptionLi0EEEvPT_, symObjAddr: 0x62A8, symBinAddr: 0x100007580, symSize: 0x24 }
  - { offsetInCU: 0xEA5F, offset: 0xEA5F, size: 0x8, addend: 0x0, symName: __ZNSt3__112__destroy_atB8ue170006I14QuestionOptionLi0EEEvPT_, symObjAddr: 0x62CC, symBinAddr: 0x1000075A4, symSize: 0x24 }
  - { offsetInCU: 0xEABF, offset: 0xEABF, size: 0x8, addend: 0x0, symName: __ZNSt3__14prevB8ue170006IP14QuestionOptionEENS_9enable_ifIXsr29__has_input_iterator_categoryIT_EE5valueES4_E4typeES4_NS_15iterator_traitsIS4_E15difference_typeE, symObjAddr: 0x6354, symBinAddr: 0x10000762C, symSize: 0x3C }
  - { offsetInCU: 0xEB02, offset: 0xEB02, size: 0x8, addend: 0x0, symName: __ZNSt3__19__advanceB8ue170006IP14QuestionOptionEEvRT_NS_15iterator_traitsIS3_E15difference_typeENS_26random_access_iterator_tagE, symObjAddr: 0x63C8, symBinAddr: 0x1000076A0, symSize: 0x28 }
  - { offsetInCU: 0xEB9E, offset: 0xEB9E, size: 0x8, addend: 0x0, symName: __ZNSt3__122__make_exception_guardB8ue170006INS_6vectorI8QuestionNS_9allocatorIS2_EEE16__destroy_vectorEEENS_28__exception_guard_exceptionsIT_EES8_, symObjAddr: 0x68C8, symBinAddr: 0x100007BA0, symSize: 0x40 }
  - { offsetInCU: 0xEBD3, offset: 0xEBD3, size: 0x8, addend: 0x0, symName: __ZNSt3__119__allocate_at_leastB8ue170006INS_9allocatorI8QuestionEEEENS_19__allocation_resultINS_16allocator_traitsIT_E7pointerEEERS6_m, symObjAddr: 0x6CD8, symBinAddr: 0x100007FB0, symSize: 0x40 }
  - { offsetInCU: 0xEC16, offset: 0xEC16, size: 0x8, addend: 0x0, symName: __ZNSt3__112__to_addressB8ue170006I8QuestionEEPT_S3_, symObjAddr: 0x700C, symBinAddr: 0x1000082E4, symSize: 0x14 }
  - { offsetInCU: 0xEC4B, offset: 0xEC4B, size: 0x8, addend: 0x0, symName: __ZNSt3__130__uninitialized_allocator_copyB8ue170006INS_9allocatorI8QuestionEEPKS2_S5_PS2_EET2_RT_T0_T1_S7_, symObjAddr: 0x70BC, symBinAddr: 0x100008394, symSize: 0x80 }
  - { offsetInCU: 0xECE8, offset: 0xECE8, size: 0x8, addend: 0x0, symName: __ZNSt3__114__unwrap_rangeB8ue170006IPK8QuestionS3_EEDaT_T0_, symObjAddr: 0x71B4, symBinAddr: 0x10000848C, symSize: 0x3C }
  - { offsetInCU: 0xED34, offset: 0xED34, size: 0x8, addend: 0x0, symName: __ZNSt3__135__uninitialized_allocator_copy_implB8ue170006INS_9allocatorI8QuestionEEPKS2_S5_PS2_EET2_RT_T0_T1_S7_, symObjAddr: 0x71F0, symBinAddr: 0x1000084C8, symSize: 0xF4 }
  - { offsetInCU: 0xEDD2, offset: 0xEDD2, size: 0x8, addend: 0x0, symName: __ZNSt3__113__unwrap_iterB8ue170006IP8QuestionNS_18__unwrap_iter_implIS2_Lb1EEELi0EEEDTclsrT0_8__unwrapclsr3stdE7declvalIT_EEEES6_, symObjAddr: 0x72E4, symBinAddr: 0x1000085BC, symSize: 0x24 }
  - { offsetInCU: 0xEE16, offset: 0xEE16, size: 0x8, addend: 0x0, symName: __ZNSt3__113__rewrap_iterB8ue170006IP8QuestionS2_NS_18__unwrap_iter_implIS2_Lb1EEEEET_S5_T0_, symObjAddr: 0x7308, symBinAddr: 0x1000085E0, symSize: 0x3C }
  - { offsetInCU: 0xEF6D, offset: 0xEF6D, size: 0x8, addend: 0x0, symName: __ZNSt3__113__unwrap_iterB8ue170006IPK8QuestionNS_18__unwrap_iter_implIS3_Lb1EEELi0EEEDTclsrT0_8__unwrapclsr3stdE7declvalIT_EEEES7_, symObjAddr: 0x739C, symBinAddr: 0x100008674, symSize: 0x24 }
  - { offsetInCU: 0xF004, offset: 0xF004, size: 0x8, addend: 0x0, symName: __ZNSt3__112__to_addressB8ue170006IK8QuestionEEPT_S4_, symObjAddr: 0x7420, symBinAddr: 0x1000086F8, symSize: 0x14 }
  - { offsetInCU: 0xF039, offset: 0xF039, size: 0x8, addend: 0x0, symName: __ZNSt3__122__make_exception_guardB8ue170006INS_29_AllocatorDestroyRangeReverseINS_9allocatorI8QuestionEEPS3_EEEENS_28__exception_guard_exceptionsIT_EES8_, symObjAddr: 0x7468, symBinAddr: 0x100008740, symSize: 0x4C }
  - { offsetInCU: 0xF094, offset: 0xF094, size: 0x8, addend: 0x0, symName: __ZNSt3__112construct_atB8ue170006I8QuestionJRKS1_EPS1_EEPT_S6_DpOT0_, symObjAddr: 0x760C, symBinAddr: 0x1000088E4, symSize: 0x3C }
  - { offsetInCU: 0xF104, offset: 0xF104, size: 0x8, addend: 0x0, symName: __ZNSt3__130__uninitialized_allocator_copyB8ue170006INS_9allocatorI14QuestionOptionEEPS2_S4_S4_EET2_RT_T0_T1_S5_, symObjAddr: 0x79A0, symBinAddr: 0x100008C78, symSize: 0x80 }
  - { offsetInCU: 0xF1A1, offset: 0xF1A1, size: 0x8, addend: 0x0, symName: __ZNSt3__114__unwrap_rangeB8ue170006IP14QuestionOptionS2_EEDaT_T0_, symObjAddr: 0x7A20, symBinAddr: 0x100008CF8, symSize: 0x3C }
  - { offsetInCU: 0xF1ED, offset: 0xF1ED, size: 0x8, addend: 0x0, symName: __ZNSt3__135__uninitialized_allocator_copy_implB8ue170006INS_9allocatorI14QuestionOptionEEPS2_S4_S4_EET2_RT_T0_T1_S5_, symObjAddr: 0x7A5C, symBinAddr: 0x100008D34, symSize: 0xF4 }
  - { offsetInCU: 0xF38D, offset: 0xF38D, size: 0x8, addend: 0x0, symName: __ZNSt3__112construct_atB8ue170006I14QuestionOptionJRS1_EPS1_EEPT_S5_DpOT0_, symObjAddr: 0x7C48, symBinAddr: 0x100008F20, symSize: 0x3C }
  - { offsetInCU: 0xF3FD, offset: 0xF3FD, size: 0x8, addend: 0x0, symName: __ZNSt3__119__allocator_destroyB8ue170006INS_9allocatorI8QuestionEENS_16reverse_iteratorIPS2_EES6_EEvRT_T0_T1_, symObjAddr: 0x7D3C, symBinAddr: 0x100009014, symSize: 0x70 }
  - { offsetInCU: 0xF460, offset: 0xF460, size: 0x8, addend: 0x0, symName: __ZNSt3__1neB8ue170006IP8QuestionS2_EEbRKNS_16reverse_iteratorIT_EERKNS3_IT0_EE, symObjAddr: 0x7DE0, symBinAddr: 0x1000090B8, symSize: 0x48 }
  - { offsetInCU: 0xF4AC, offset: 0xF4AC, size: 0x8, addend: 0x0, symName: __ZNSt3__112__to_addressB8ue170006INS_16reverse_iteratorIP8QuestionEEvEEu7__decayIDTclsr19__to_address_helperIT_EE6__callclsr3stdE7declvalIRKS5_EEEEES7_, symObjAddr: 0x7E50, symBinAddr: 0x100009128, symSize: 0x24 }
  - { offsetInCU: 0xF4E2, offset: 0xF4E2, size: 0x8, addend: 0x0, symName: __ZNSt3__110destroy_atB8ue170006I8QuestionLi0EEEvPT_, symObjAddr: 0x7EAC, symBinAddr: 0x100009184, symSize: 0x24 }
  - { offsetInCU: 0xF519, offset: 0xF519, size: 0x8, addend: 0x0, symName: __ZNSt3__112__destroy_atB8ue170006I8QuestionLi0EEEvPT_, symObjAddr: 0x7ED0, symBinAddr: 0x1000091A8, symSize: 0x24 }
  - { offsetInCU: 0xF579, offset: 0xF579, size: 0x8, addend: 0x0, symName: __ZNSt3__14prevB8ue170006IP8QuestionEENS_9enable_ifIXsr29__has_input_iterator_categoryIT_EE5valueES4_E4typeES4_NS_15iterator_traitsIS4_E15difference_typeE, symObjAddr: 0x7F58, symBinAddr: 0x100009230, symSize: 0x3C }
  - { offsetInCU: 0xF5BC, offset: 0xF5BC, size: 0x8, addend: 0x0, symName: __ZNSt3__19__advanceB8ue170006IP8QuestionEEvRT_NS_15iterator_traitsIS3_E15difference_typeENS_26random_access_iterator_tagE, symObjAddr: 0x7FCC, symBinAddr: 0x1000092A4, symSize: 0x30 }
  - { offsetInCU: 0xF658, offset: 0xF658, size: 0x8, addend: 0x0, symName: __ZNSt3__1eqB8ue170006IP8QuestionEEbRKNS_11__wrap_iterIT_EES7_, symObjAddr: 0x84F0, symBinAddr: 0x1000097C8, symSize: 0x48 }
  - { offsetInCU: 0xF69B, offset: 0xF69B, size: 0x8, addend: 0x0, symName: __ZNSt3__122__make_exception_guardB8ue170006INS_6vectorI6ChoiceNS_9allocatorIS2_EEE16__destroy_vectorEEENS_28__exception_guard_exceptionsIT_EES8_, symObjAddr: 0x8718, symBinAddr: 0x1000099F0, symSize: 0x40 }
  - { offsetInCU: 0xF6D0, offset: 0xF6D0, size: 0x8, addend: 0x0, symName: __ZNSt3__119__allocate_at_leastB8ue170006INS_9allocatorI6ChoiceEEEENS_19__allocation_resultINS_16allocator_traitsIT_E7pointerEEERS6_m, symObjAddr: 0x8B18, symBinAddr: 0x100009DF0, symSize: 0x40 }
  - { offsetInCU: 0xF713, offset: 0xF713, size: 0x8, addend: 0x0, symName: __ZNSt3__112__to_addressB8ue170006I6ChoiceEEPT_S3_, symObjAddr: 0x8E2C, symBinAddr: 0x10000A104, symSize: 0x14 }
  - { offsetInCU: 0xF748, offset: 0xF748, size: 0x8, addend: 0x0, symName: __ZNSt3__130__uninitialized_allocator_copyB8ue170006INS_9allocatorI6ChoiceEEPKS2_S5_PS2_EET2_RT_T0_T1_S7_, symObjAddr: 0x8EDC, symBinAddr: 0x10000A1B4, symSize: 0x80 }
  - { offsetInCU: 0xF7E5, offset: 0xF7E5, size: 0x8, addend: 0x0, symName: __ZNSt3__114__unwrap_rangeB8ue170006IPK6ChoiceS3_EEDaT_T0_, symObjAddr: 0x8FCC, symBinAddr: 0x10000A2A4, symSize: 0x3C }
  - { offsetInCU: 0xF831, offset: 0xF831, size: 0x8, addend: 0x0, symName: __ZNSt3__135__uninitialized_allocator_copy_implB8ue170006INS_9allocatorI6ChoiceEEPKS2_S5_PS2_EET2_RT_T0_T1_S7_, symObjAddr: 0x9008, symBinAddr: 0x10000A2E0, symSize: 0xF4 }
  - { offsetInCU: 0xF8CF, offset: 0xF8CF, size: 0x8, addend: 0x0, symName: __ZNSt3__113__unwrap_iterB8ue170006IP6ChoiceNS_18__unwrap_iter_implIS2_Lb1EEELi0EEEDTclsrT0_8__unwrapclsr3stdE7declvalIT_EEEES6_, symObjAddr: 0x90FC, symBinAddr: 0x10000A3D4, symSize: 0x24 }
  - { offsetInCU: 0xF913, offset: 0xF913, size: 0x8, addend: 0x0, symName: __ZNSt3__113__rewrap_iterB8ue170006IP6ChoiceS2_NS_18__unwrap_iter_implIS2_Lb1EEEEET_S5_T0_, symObjAddr: 0x9120, symBinAddr: 0x10000A3F8, symSize: 0x3C }
  - { offsetInCU: 0xFA6A, offset: 0xFA6A, size: 0x8, addend: 0x0, symName: __ZNSt3__113__unwrap_iterB8ue170006IPK6ChoiceNS_18__unwrap_iter_implIS3_Lb1EEELi0EEEDTclsrT0_8__unwrapclsr3stdE7declvalIT_EEEES7_, symObjAddr: 0x91B4, symBinAddr: 0x10000A48C, symSize: 0x24 }
  - { offsetInCU: 0xFB01, offset: 0xFB01, size: 0x8, addend: 0x0, symName: __ZNSt3__112__to_addressB8ue170006IK6ChoiceEEPT_S4_, symObjAddr: 0x9238, symBinAddr: 0x10000A510, symSize: 0x14 }
  - { offsetInCU: 0xFB36, offset: 0xFB36, size: 0x8, addend: 0x0, symName: __ZNSt3__122__make_exception_guardB8ue170006INS_29_AllocatorDestroyRangeReverseINS_9allocatorI6ChoiceEEPS3_EEEENS_28__exception_guard_exceptionsIT_EES8_, symObjAddr: 0x9280, symBinAddr: 0x10000A558, symSize: 0x4C }
  - { offsetInCU: 0xFB91, offset: 0xFB91, size: 0x8, addend: 0x0, symName: __ZNSt3__112construct_atB8ue170006I6ChoiceJRKS1_EPS1_EEPT_S6_DpOT0_, symObjAddr: 0x9424, symBinAddr: 0x10000A6FC, symSize: 0x3C }
  - { offsetInCU: 0xFC01, offset: 0xFC01, size: 0x8, addend: 0x0, symName: __ZNSt3__119__allocator_destroyB8ue170006INS_9allocatorI6ChoiceEENS_16reverse_iteratorIPS2_EES6_EEvRT_T0_T1_, symObjAddr: 0x958C, symBinAddr: 0x10000A864, symSize: 0x70 }
  - { offsetInCU: 0xFC64, offset: 0xFC64, size: 0x8, addend: 0x0, symName: __ZNSt3__1neB8ue170006IP6ChoiceS2_EEbRKNS_16reverse_iteratorIT_EERKNS3_IT0_EE, symObjAddr: 0x9630, symBinAddr: 0x10000A908, symSize: 0x48 }
  - { offsetInCU: 0xFCB0, offset: 0xFCB0, size: 0x8, addend: 0x0, symName: __ZNSt3__112__to_addressB8ue170006INS_16reverse_iteratorIP6ChoiceEEvEEu7__decayIDTclsr19__to_address_helperIT_EE6__callclsr3stdE7declvalIRKS5_EEEEES7_, symObjAddr: 0x96A0, symBinAddr: 0x10000A978, symSize: 0x24 }
  - { offsetInCU: 0xFCE6, offset: 0xFCE6, size: 0x8, addend: 0x0, symName: __ZNSt3__110destroy_atB8ue170006I6ChoiceLi0EEEvPT_, symObjAddr: 0x96FC, symBinAddr: 0x10000A9D4, symSize: 0x24 }
  - { offsetInCU: 0xFD1D, offset: 0xFD1D, size: 0x8, addend: 0x0, symName: __ZNSt3__112__destroy_atB8ue170006I6ChoiceLi0EEEvPT_, symObjAddr: 0x9720, symBinAddr: 0x10000A9F8, symSize: 0x24 }
  - { offsetInCU: 0xFD7D, offset: 0xFD7D, size: 0x8, addend: 0x0, symName: __ZNSt3__14prevB8ue170006IP6ChoiceEENS_9enable_ifIXsr29__has_input_iterator_categoryIT_EE5valueES4_E4typeES4_NS_15iterator_traitsIS4_E15difference_typeE, symObjAddr: 0x97A8, symBinAddr: 0x10000AA80, symSize: 0x3C }
  - { offsetInCU: 0xFDC0, offset: 0xFDC0, size: 0x8, addend: 0x0, symName: __ZNSt3__19__advanceB8ue170006IP6ChoiceEEvRT_NS_15iterator_traitsIS3_E15difference_typeENS_26random_access_iterator_tagE, symObjAddr: 0x981C, symBinAddr: 0x10000AAF4, symSize: 0x28 }
  - { offsetInCU: 0xFE5C, offset: 0xFE5C, size: 0x8, addend: 0x0, symName: __ZNSt3__122__make_exception_guardB8ue170006INS_6vectorI10ChoiceMenuNS_9allocatorIS2_EEE16__destroy_vectorEEENS_28__exception_guard_exceptionsIT_EES8_, symObjAddr: 0x9D44, symBinAddr: 0x10000B01C, symSize: 0x40 }
  - { offsetInCU: 0xFE91, offset: 0xFE91, size: 0x8, addend: 0x0, symName: __ZNSt3__119__allocate_at_leastB8ue170006INS_9allocatorI10ChoiceMenuEEEENS_19__allocation_resultINS_16allocator_traitsIT_E7pointerEEERS6_m, symObjAddr: 0xA154, symBinAddr: 0x10000B42C, symSize: 0x40 }
  - { offsetInCU: 0xFED4, offset: 0xFED4, size: 0x8, addend: 0x0, symName: __ZNSt3__112__to_addressB8ue170006I10ChoiceMenuEEPT_S3_, symObjAddr: 0xA488, symBinAddr: 0x10000B760, symSize: 0x14 }
  - { offsetInCU: 0xFF09, offset: 0xFF09, size: 0x8, addend: 0x0, symName: __ZNSt3__130__uninitialized_allocator_copyB8ue170006INS_9allocatorI10ChoiceMenuEEPKS2_S5_PS2_EET2_RT_T0_T1_S7_, symObjAddr: 0xA538, symBinAddr: 0x10000B810, symSize: 0x80 }
  - { offsetInCU: 0xFFA6, offset: 0xFFA6, size: 0x8, addend: 0x0, symName: __ZNSt3__114__unwrap_rangeB8ue170006IPK10ChoiceMenuS3_EEDaT_T0_, symObjAddr: 0xA630, symBinAddr: 0x10000B908, symSize: 0x3C }
  - { offsetInCU: 0xFFF2, offset: 0xFFF2, size: 0x8, addend: 0x0, symName: __ZNSt3__135__uninitialized_allocator_copy_implB8ue170006INS_9allocatorI10ChoiceMenuEEPKS2_S5_PS2_EET2_RT_T0_T1_S7_, symObjAddr: 0xA66C, symBinAddr: 0x10000B944, symSize: 0xF4 }
  - { offsetInCU: 0x10090, offset: 0x10090, size: 0x8, addend: 0x0, symName: __ZNSt3__113__unwrap_iterB8ue170006IP10ChoiceMenuNS_18__unwrap_iter_implIS2_Lb1EEELi0EEEDTclsrT0_8__unwrapclsr3stdE7declvalIT_EEEES6_, symObjAddr: 0xA760, symBinAddr: 0x10000BA38, symSize: 0x24 }
  - { offsetInCU: 0x100D4, offset: 0x100D4, size: 0x8, addend: 0x0, symName: __ZNSt3__113__rewrap_iterB8ue170006IP10ChoiceMenuS2_NS_18__unwrap_iter_implIS2_Lb1EEEEET_S5_T0_, symObjAddr: 0xA784, symBinAddr: 0x10000BA5C, symSize: 0x3C }
  - { offsetInCU: 0x1022B, offset: 0x1022B, size: 0x8, addend: 0x0, symName: __ZNSt3__113__unwrap_iterB8ue170006IPK10ChoiceMenuNS_18__unwrap_iter_implIS3_Lb1EEELi0EEEDTclsrT0_8__unwrapclsr3stdE7declvalIT_EEEES7_, symObjAddr: 0xA818, symBinAddr: 0x10000BAF0, symSize: 0x24 }
  - { offsetInCU: 0x102C2, offset: 0x102C2, size: 0x8, addend: 0x0, symName: __ZNSt3__112__to_addressB8ue170006IK10ChoiceMenuEEPT_S4_, symObjAddr: 0xA89C, symBinAddr: 0x10000BB74, symSize: 0x14 }
  - { offsetInCU: 0x102F7, offset: 0x102F7, size: 0x8, addend: 0x0, symName: __ZNSt3__122__make_exception_guardB8ue170006INS_29_AllocatorDestroyRangeReverseINS_9allocatorI10ChoiceMenuEEPS3_EEEENS_28__exception_guard_exceptionsIT_EES8_, symObjAddr: 0xA8E4, symBinAddr: 0x10000BBBC, symSize: 0x4C }
  - { offsetInCU: 0x10352, offset: 0x10352, size: 0x8, addend: 0x0, symName: __ZNSt3__112construct_atB8ue170006I10ChoiceMenuJRKS1_EPS1_EEPT_S6_DpOT0_, symObjAddr: 0xAA88, symBinAddr: 0x10000BD60, symSize: 0x3C }
  - { offsetInCU: 0x103C2, offset: 0x103C2, size: 0x8, addend: 0x0, symName: __ZNSt3__130__uninitialized_allocator_copyB8ue170006INS_9allocatorI6ChoiceEEPS2_S4_S4_EET2_RT_T0_T1_S5_, symObjAddr: 0xAE1C, symBinAddr: 0x10000C0F4, symSize: 0x80 }
  - { offsetInCU: 0x1045F, offset: 0x1045F, size: 0x8, addend: 0x0, symName: __ZNSt3__114__unwrap_rangeB8ue170006IP6ChoiceS2_EEDaT_T0_, symObjAddr: 0xAE9C, symBinAddr: 0x10000C174, symSize: 0x3C }
  - { offsetInCU: 0x104AB, offset: 0x104AB, size: 0x8, addend: 0x0, symName: __ZNSt3__135__uninitialized_allocator_copy_implB8ue170006INS_9allocatorI6ChoiceEEPS2_S4_S4_EET2_RT_T0_T1_S5_, symObjAddr: 0xAED8, symBinAddr: 0x10000C1B0, symSize: 0xF4 }
  - { offsetInCU: 0x1064B, offset: 0x1064B, size: 0x8, addend: 0x0, symName: __ZNSt3__112construct_atB8ue170006I6ChoiceJRS1_EPS1_EEPT_S5_DpOT0_, symObjAddr: 0xB0C4, symBinAddr: 0x10000C39C, symSize: 0x3C }
  - { offsetInCU: 0x106BB, offset: 0x106BB, size: 0x8, addend: 0x0, symName: __ZNSt3__119__allocator_destroyB8ue170006INS_9allocatorI10ChoiceMenuEENS_16reverse_iteratorIPS2_EES6_EEvRT_T0_T1_, symObjAddr: 0xB1B8, symBinAddr: 0x10000C490, symSize: 0x70 }
  - { offsetInCU: 0x1071E, offset: 0x1071E, size: 0x8, addend: 0x0, symName: __ZNSt3__1neB8ue170006IP10ChoiceMenuS2_EEbRKNS_16reverse_iteratorIT_EERKNS3_IT0_EE, symObjAddr: 0xB25C, symBinAddr: 0x10000C534, symSize: 0x48 }
  - { offsetInCU: 0x1076A, offset: 0x1076A, size: 0x8, addend: 0x0, symName: __ZNSt3__112__to_addressB8ue170006INS_16reverse_iteratorIP10ChoiceMenuEEvEEu7__decayIDTclsr19__to_address_helperIT_EE6__callclsr3stdE7declvalIRKS5_EEEEES7_, symObjAddr: 0xB2CC, symBinAddr: 0x10000C5A4, symSize: 0x24 }
  - { offsetInCU: 0x107A0, offset: 0x107A0, size: 0x8, addend: 0x0, symName: __ZNSt3__110destroy_atB8ue170006I10ChoiceMenuLi0EEEvPT_, symObjAddr: 0xB328, symBinAddr: 0x10000C600, symSize: 0x24 }
  - { offsetInCU: 0x107D7, offset: 0x107D7, size: 0x8, addend: 0x0, symName: __ZNSt3__112__destroy_atB8ue170006I10ChoiceMenuLi0EEEvPT_, symObjAddr: 0xB34C, symBinAddr: 0x10000C624, symSize: 0x24 }
  - { offsetInCU: 0x10837, offset: 0x10837, size: 0x8, addend: 0x0, symName: __ZNSt3__14prevB8ue170006IP10ChoiceMenuEENS_9enable_ifIXsr29__has_input_iterator_categoryIT_EE5valueES4_E4typeES4_NS_15iterator_traitsIS4_E15difference_typeE, symObjAddr: 0xB3D4, symBinAddr: 0x10000C6AC, symSize: 0x3C }
  - { offsetInCU: 0x1087A, offset: 0x1087A, size: 0x8, addend: 0x0, symName: __ZNSt3__19__advanceB8ue170006IP10ChoiceMenuEEvRT_NS_15iterator_traitsIS3_E15difference_typeENS_26random_access_iterator_tagE, symObjAddr: 0xB448, symBinAddr: 0x10000C720, symSize: 0x30 }
  - { offsetInCU: 0x10916, offset: 0x10916, size: 0x8, addend: 0x0, symName: __ZNSt3__116__pad_and_outputB8ue170006IcNS_11char_traitsIcEEEENS_19ostreambuf_iteratorIT_T0_EES6_PKS4_S8_S8_RNS_8ios_baseES4_, symObjAddr: 0xBB30, symBinAddr: 0x10000CE08, symSize: 0x240 }
  - { offsetInCU: 0x109E5, offset: 0x109E5, size: 0x8, addend: 0x0, symName: __ZNSt3__112__to_addressB8ue170006IcEEPT_S2_, symObjAddr: 0xBFA0, symBinAddr: 0x10000D278, symSize: 0x14 }
  - { offsetInCU: 0x10A1A, offset: 0x10A1A, size: 0x8, addend: 0x0, symName: __ZNSt3__19use_facetB8ue170006INS_5ctypeIcEEEERKT_RKNS_6localeE, symObjAddr: 0xC220, symBinAddr: 0x10000D4F8, symSize: 0x2C }
  - { offsetInCU: 0x10DF8, offset: 0x10DF8, size: 0x8, addend: 0x0, symName: __ZNSt3__112__to_addressB8ue170006IKcEEPT_S3_, symObjAddr: 0xC334, symBinAddr: 0x10000D60C, symSize: 0x14 }
  - { offsetInCU: 0x10E60, offset: 0x10E60, size: 0x8, addend: 0x0, symName: __ZNSt3__1gtB8ue170006ENS_15strong_orderingENS_20_CmpUnspecifiedParamE, symObjAddr: 0xC45C, symBinAddr: 0x10000D734, symSize: 0x24 }
  - { offsetInCU: 0x10EB5, offset: 0x10EB5, size: 0x8, addend: 0x0, symName: __ZNSt3__1ltB8ue170006ENS_16partial_orderingENS_20_CmpUnspecifiedParamE, symObjAddr: 0xC57C, symBinAddr: 0x10000D854, symSize: 0x54 }
  - { offsetInCU: 0x10EEB, offset: 0x10EEB, size: 0x8, addend: 0x0, symName: __ZNSt3__1ltB8ue170006ENS_15strong_orderingENS_20_CmpUnspecifiedParamE, symObjAddr: 0xC6B4, symBinAddr: 0x10000D98C, symSize: 0x24 }
  - { offsetInCU: 0x11E5C, offset: 0x11E5C, size: 0x8, addend: 0x0, symName: __ZSt28__throw_bad_array_new_lengthB8ue170006v, symObjAddr: 0x3FBC, symBinAddr: 0x100005294, symSize: 0x34 }
  - { offsetInCU: 0x1206F, offset: 0x1206F, size: 0x8, addend: 0x0, symName: _ch, symObjAddr: 0x6C1E8, symBinAddr: 0x100014020, symSize: 0x0 }
  - { offsetInCU: 0x12084, offset: 0x12084, size: 0x8, addend: 0x0, symName: _player, symObjAddr: 0x6C1F0, symBinAddr: 0x100014028, symSize: 0x0 }
  - { offsetInCU: 0x12C14, offset: 0x12C14, size: 0x8, addend: 0x0, symName: __ZNKSt3__16chrono15__duration_castINS0_8durationIeNS_5ratioILl1ELl1EEEEENS2_IeNS3_ILl1ELl1000EEEEENS3_ILl1000ELl1EEELb0ELb1EEclB8ue170006ERKS5_, symObjAddr: 0xCAB0, symBinAddr: 0x10000DD88, symSize: 0x4C }
  - { offsetInCU: 0x12C80, offset: 0x12C80, size: 0x8, addend: 0x0, symName: __ZNKSt3__16chrono15__duration_castINS0_8durationIxNS_5ratioILl1ELl1000EEEEENS2_IxNS3_ILl1ELl1000000000EEEEENS3_ILl1000000ELl1EEELb0ELb1EEclB8ue170006ERKS5_, symObjAddr: 0xCB14, symBinAddr: 0x10000DDEC, symSize: 0x4C }
  - { offsetInCU: 0x15035, offset: 0x15035, size: 0x8, addend: 0x0, symName: __Z5debugRKNSt3__112basic_stringIcNS_11char_traitsIcEENS_9allocatorIcEEEE, symObjAddr: 0x0, symBinAddr: 0x1000012D8, symSize: 0x44 }
  - { offsetInCU: 0x1505E, offset: 0x1505E, size: 0x8, addend: 0x0, symName: __ZNSt3__113basic_ostreamIcNS_11char_traitsIcEEElsB8ue170006EPFRS3_S4_E, symObjAddr: 0xD8, symBinAddr: 0x1000013B0, symSize: 0x2C }
  - { offsetInCU: 0x15091, offset: 0x15091, size: 0x8, addend: 0x0, symName: __Z13character_sayRKNSt3__112basic_stringIcNS_11char_traitsIcEENS_9allocatorIcEEEES7_, symObjAddr: 0x15C, symBinAddr: 0x100001434, symSize: 0x5C }
  - { offsetInCU: 0x150C7, offset: 0x150C7, size: 0x8, addend: 0x0, symName: __Z7tip_sayRKNSt3__112basic_stringIcNS_11char_traitsIcEENS_9allocatorIcEEEE, symObjAddr: 0x1B8, symBinAddr: 0x100001490, symSize: 0x50 }
  - { offsetInCU: 0x150EF, offset: 0x150EF, size: 0x8, addend: 0x0, symName: __Z8lore_sayRKNSt3__112basic_stringIcNS_11char_traitsIcEENS_9allocatorIcEEEE, symObjAddr: 0x208, symBinAddr: 0x1000014E0, symSize: 0x50 }
  - { offsetInCU: 0x1511D, offset: 0x1511D, size: 0x8, addend: 0x0, symName: __ZN6PlayerC1Ev, symObjAddr: 0x258, symBinAddr: 0x100001530, symSize: 0x2C }
  - { offsetInCU: 0x15149, offset: 0x15149, size: 0x8, addend: 0x0, symName: __ZN6PlayerD1Ev, symObjAddr: 0x284, symBinAddr: 0x10000155C, symSize: 0x2C }
  - { offsetInCU: 0x15174, offset: 0x15174, size: 0x8, addend: 0x0, symName: __Z5kbhitv, symObjAddr: 0x2B0, symBinAddr: 0x100001588, symSize: 0x168 }
  - { offsetInCU: 0x151CB, offset: 0x151CB, size: 0x8, addend: 0x0, symName: __Z5getchv, symObjAddr: 0x418, symBinAddr: 0x1000016F0, symSize: 0x16C }
  - { offsetInCU: 0x15205, offset: 0x15205, size: 0x8, addend: 0x0, symName: __Z12sleep_for_msi, symObjAddr: 0x584, symBinAddr: 0x10000185C, symSize: 0x38 }
  - { offsetInCU: 0x15238, offset: 0x15238, size: 0x8, addend: 0x0, symName: __ZNSt3__16chrono8durationIxNS_5ratioILl1ELl1000EEEEC1B8ue170006IiEERKT_PNS_9enable_ifIXaasr14is_convertibleIS8_xEE5valueooL_ZNS_17integral_constantIbLb0EE5valueEEntsr23treat_as_floating_pointIS6_EE5valueEvE4typeE, symObjAddr: 0x6CC, symBinAddr: 0x1000019A4, symSize: 0x3C }
  - { offsetInCU: 0x15283, offset: 0x15283, size: 0x8, addend: 0x0, symName: __Z15handle_dialogueRKNSt3__16vectorI8DialogueNS_9allocatorIS1_EEEE, symObjAddr: 0x708, symBinAddr: 0x1000019E0, symSize: 0xE8 }
  - { offsetInCU: 0x152FD, offset: 0x152FD, size: 0x8, addend: 0x0, symName: __ZNKSt3__16vectorI8DialogueNS_9allocatorIS1_EEE5beginB8ue170006Ev, symObjAddr: 0x7F0, symBinAddr: 0x100001AC8, symSize: 0x30 }
  - { offsetInCU: 0x15325, offset: 0x15325, size: 0x8, addend: 0x0, symName: __ZNKSt3__16vectorI8DialogueNS_9allocatorIS1_EEE3endB8ue170006Ev, symObjAddr: 0x820, symBinAddr: 0x100001AF8, symSize: 0x30 }
  - { offsetInCU: 0x1534D, offset: 0x1534D, size: 0x8, addend: 0x0, symName: __ZNKSt3__111__wrap_iterIPK8DialogueEdeB8ue170006Ev, symObjAddr: 0x884, symBinAddr: 0x100001B5C, symSize: 0x18 }
  - { offsetInCU: 0x15373, offset: 0x15373, size: 0x8, addend: 0x0, symName: __ZNSt3__111__wrap_iterIPK8DialogueEppB8ue170006Ev, symObjAddr: 0x89C, symBinAddr: 0x100001B74, symSize: 0x20 }
  - { offsetInCU: 0x15398, offset: 0x15398, size: 0x8, addend: 0x0, symName: __Z18handle_choice_menuRK10ChoiceMenu, symObjAddr: 0x8BC, symBinAddr: 0x100001B94, symSize: 0x1BC }
  - { offsetInCU: 0x15463, offset: 0x15463, size: 0x8, addend: 0x0, symName: __ZNKSt3__16vectorI6ChoiceNS_9allocatorIS1_EEE5beginB8ue170006Ev, symObjAddr: 0xA78, symBinAddr: 0x100001D50, symSize: 0x30 }
  - { offsetInCU: 0x1548B, offset: 0x1548B, size: 0x8, addend: 0x0, symName: __ZNKSt3__16vectorI6ChoiceNS_9allocatorIS1_EEE3endB8ue170006Ev, symObjAddr: 0xAA8, symBinAddr: 0x100001D80, symSize: 0x30 }
  - { offsetInCU: 0x154B3, offset: 0x154B3, size: 0x8, addend: 0x0, symName: __ZNKSt3__111__wrap_iterIPK6ChoiceEdeB8ue170006Ev, symObjAddr: 0xB0C, symBinAddr: 0x100001DE4, symSize: 0x18 }
  - { offsetInCU: 0x154D9, offset: 0x154D9, size: 0x8, addend: 0x0, symName: __ZNSt3__111__wrap_iterIPK6ChoiceEppB8ue170006Ev, symObjAddr: 0xB58, symBinAddr: 0x100001E30, symSize: 0x20 }
  - { offsetInCU: 0x154FE, offset: 0x154FE, size: 0x8, addend: 0x0, symName: __Z18lore_not_right_fitv, symObjAddr: 0xB78, symBinAddr: 0x100001E50, symSize: 0x28C }
  - { offsetInCU: 0x1552D, offset: 0x1552D, size: 0x8, addend: 0x0, symName: __ZNSt3__112basic_stringIcNS_11char_traitsIcEENS_9allocatorIcEEEC1B8ue170006ILi0EEEPKc, symObjAddr: 0xE04, symBinAddr: 0x1000020DC, symSize: 0x34 }
  - { offsetInCU: 0x15571, offset: 0x15571, size: 0x8, addend: 0x0, symName: __ZN8DialogueD1Ev, symObjAddr: 0xE38, symBinAddr: 0x100002110, symSize: 0x2C }
  - { offsetInCU: 0x1559D, offset: 0x1559D, size: 0x8, addend: 0x0, symName: __ZNSt3__16vectorI8DialogueNS_9allocatorIS1_EEEC1B8ue170006ESt16initializer_listIS1_E, symObjAddr: 0xE64, symBinAddr: 0x10000213C, symSize: 0x3C }
  - { offsetInCU: 0x155D8, offset: 0x155D8, size: 0x8, addend: 0x0, symName: __ZNSt3__16vectorI8DialogueNS_9allocatorIS1_EEED1B8ue170006Ev, symObjAddr: 0xEA0, symBinAddr: 0x100002178, symSize: 0x2C }
  - { offsetInCU: 0x15601, offset: 0x15601, size: 0x8, addend: 0x0, symName: __Z11lore_greedyv, symObjAddr: 0xECC, symBinAddr: 0x1000021A4, symSize: 0x3EC }
  - { offsetInCU: 0x1562A, offset: 0x1562A, size: 0x8, addend: 0x0, symName: __Z27handle_first_door_questionsv, symObjAddr: 0x12B8, symBinAddr: 0x100002590, symSize: 0xF08 }
  - { offsetInCU: 0x1570D, offset: 0x1570D, size: 0x8, addend: 0x0, symName: __ZN14QuestionOptionD1Ev, symObjAddr: 0x21C0, symBinAddr: 0x100003498, symSize: 0x2C }
  - { offsetInCU: 0x15739, offset: 0x15739, size: 0x8, addend: 0x0, symName: __ZNSt3__16vectorI14QuestionOptionNS_9allocatorIS1_EEEC1B8ue170006ESt16initializer_listIS1_E, symObjAddr: 0x21EC, symBinAddr: 0x1000034C4, symSize: 0x3C }
  - { offsetInCU: 0x15774, offset: 0x15774, size: 0x8, addend: 0x0, symName: __ZNSt3__16vectorI8QuestionNS_9allocatorIS1_EEEC1B8ue170006ESt16initializer_listIS1_E, symObjAddr: 0x2228, symBinAddr: 0x100003500, symSize: 0x3C }
  - { offsetInCU: 0x157B4, offset: 0x157B4, size: 0x8, addend: 0x0, symName: __ZN8QuestionD1Ev, symObjAddr: 0x2264, symBinAddr: 0x10000353C, symSize: 0x2C }
  - { offsetInCU: 0x157E0, offset: 0x157E0, size: 0x8, addend: 0x0, symName: __ZNSt3__16vectorI8QuestionNS_9allocatorIS1_EEE5beginB8ue170006Ev, symObjAddr: 0x2290, symBinAddr: 0x100003568, symSize: 0x30 }
  - { offsetInCU: 0x15808, offset: 0x15808, size: 0x8, addend: 0x0, symName: __ZNSt3__16vectorI8QuestionNS_9allocatorIS1_EEE3endB8ue170006Ev, symObjAddr: 0x22C0, symBinAddr: 0x100003598, symSize: 0x30 }
  - { offsetInCU: 0x15830, offset: 0x15830, size: 0x8, addend: 0x0, symName: __ZNKSt3__111__wrap_iterIP8QuestionEdeB8ue170006Ev, symObjAddr: 0x2324, symBinAddr: 0x1000035FC, symSize: 0x18 }
  - { offsetInCU: 0x15856, offset: 0x15856, size: 0x8, addend: 0x0, symName: __ZNKSt3__16vectorI14QuestionOptionNS_9allocatorIS1_EEE4sizeB8ue170006Ev, symObjAddr: 0x233C, symBinAddr: 0x100003614, symSize: 0x28 }
  - { offsetInCU: 0x1587C, offset: 0x1587C, size: 0x8, addend: 0x0, symName: __ZNKSt3__16vectorI14QuestionOptionNS_9allocatorIS1_EEEixB8ue170006Em, symObjAddr: 0x2364, symBinAddr: 0x10000363C, symSize: 0x24 }
  - { offsetInCU: 0x158B3, offset: 0x158B3, size: 0x8, addend: 0x0, symName: __ZNSt3__111__wrap_iterIP8QuestionEppB8ue170006Ev, symObjAddr: 0x2388, symBinAddr: 0x100003660, symSize: 0x20 }
  - { offsetInCU: 0x158D9, offset: 0x158D9, size: 0x8, addend: 0x0, symName: __ZNSt3__16vectorI8QuestionNS_9allocatorIS1_EEED1B8ue170006Ev, symObjAddr: 0x23A8, symBinAddr: 0x100003680, symSize: 0x2C }
  - { offsetInCU: 0x15902, offset: 0x15902, size: 0x8, addend: 0x0, symName: __Z17lore_introductionv, symObjAddr: 0x23D4, symBinAddr: 0x1000036AC, symSize: 0x3D8 }
  - { offsetInCU: 0x1592D, offset: 0x1592D, size: 0x8, addend: 0x0, symName: __Z8gameLoopv, symObjAddr: 0x27AC, symBinAddr: 0x100003A84, symSize: 0x494 }
  - { offsetInCU: 0x1595E, offset: 0x1595E, size: 0x8, addend: 0x0, symName: __ZN6ChoiceD1Ev, symObjAddr: 0x2C40, symBinAddr: 0x100003F18, symSize: 0x2C }
  - { offsetInCU: 0x1598A, offset: 0x1598A, size: 0x8, addend: 0x0, symName: __ZNSt3__16vectorI6ChoiceNS_9allocatorIS1_EEEC1B8ue170006ESt16initializer_listIS1_E, symObjAddr: 0x2C6C, symBinAddr: 0x100003F44, symSize: 0x3C }
  - { offsetInCU: 0x159C5, offset: 0x159C5, size: 0x8, addend: 0x0, symName: __ZNSt3__16vectorI10ChoiceMenuNS_9allocatorIS1_EEEC1B8ue170006ESt16initializer_listIS1_E, symObjAddr: 0x2CA8, symBinAddr: 0x100003F80, symSize: 0x3C }
  - { offsetInCU: 0x15A05, offset: 0x15A05, size: 0x8, addend: 0x0, symName: __ZN10ChoiceMenuD1Ev, symObjAddr: 0x2CE4, symBinAddr: 0x100003FBC, symSize: 0x2C }
  - { offsetInCU: 0x15A31, offset: 0x15A31, size: 0x8, addend: 0x0, symName: __ZNSt3__16vectorI10ChoiceMenuNS_9allocatorIS1_EEED1B8ue170006Ev, symObjAddr: 0x2D10, symBinAddr: 0x100003FE8, symSize: 0x2C }
  - { offsetInCU: 0x15A5B, offset: 0x15A5B, size: 0x8, addend: 0x0, symName: _main, symObjAddr: 0x2D3C, symBinAddr: 0x100004014, symSize: 0xD4 }
  - { offsetInCU: 0x15A76, offset: 0x15A76, size: 0x8, addend: 0x0, symName: __ZN6PlayerC2Ev, symObjAddr: 0x311C, symBinAddr: 0x1000043F4, symSize: 0x30 }
  - { offsetInCU: 0x15AA2, offset: 0x15AA2, size: 0x8, addend: 0x0, symName: __ZNSt3__112basic_stringIcNS_11char_traitsIcEENS_9allocatorIcEEEC1B8ue170006Ev, symObjAddr: 0x314C, symBinAddr: 0x100004424, symSize: 0x2C }
  - { offsetInCU: 0x15ACC, offset: 0x15ACC, size: 0x8, addend: 0x0, symName: __ZNSt3__112basic_stringIcNS_11char_traitsIcEENS_9allocatorIcEEEC2B8ue170006Ev, symObjAddr: 0x3178, symBinAddr: 0x100004450, symSize: 0x48 }
  - { offsetInCU: 0x15AFC, offset: 0x15AFC, size: 0x8, addend: 0x0, symName: __ZNSt3__117__compressed_pairINS_12basic_stringIcNS_11char_traitsIcEENS_9allocatorIcEEE5__repES5_EC1B8ue170006INS_18__default_init_tagESA_EEOT_OT0_, symObjAddr: 0x31C0, symBinAddr: 0x100004498, symSize: 0x3C }
  - { offsetInCU: 0x15B54, offset: 0x15B54, size: 0x8, addend: 0x0, symName: __ZNSt3__112basic_stringIcNS_11char_traitsIcEENS_9allocatorIcEEE14__default_initB8ue170006Ev, symObjAddr: 0x3208, symBinAddr: 0x1000044E0, symSize: 0x40 }
  - { offsetInCU: 0x15B7A, offset: 0x15B7A, size: 0x8, addend: 0x0, symName: __ZNSt3__117__compressed_pairINS_12basic_stringIcNS_11char_traitsIcEENS_9allocatorIcEEE5__repES5_EC2B8ue170006INS_18__default_init_tagESA_EEOT_OT0_, symObjAddr: 0x3248, symBinAddr: 0x100004520, symSize: 0x3C }
  - { offsetInCU: 0x15BD2, offset: 0x15BD2, size: 0x8, addend: 0x0, symName: __ZNSt3__122__compressed_pair_elemINS_12basic_stringIcNS_11char_traitsIcEENS_9allocatorIcEEE5__repELi0ELb0EEC2B8ue170006ENS_18__default_init_tagE, symObjAddr: 0x3284, symBinAddr: 0x10000455C, symSize: 0x14 }
  - { offsetInCU: 0x15C06, offset: 0x15C06, size: 0x8, addend: 0x0, symName: __ZNSt3__122__compressed_pair_elemINS_9allocatorIcEELi1ELb1EEC2B8ue170006ENS_18__default_init_tagE, symObjAddr: 0x3298, symBinAddr: 0x100004570, symSize: 0x2C }
  - { offsetInCU: 0x15C3A, offset: 0x15C3A, size: 0x8, addend: 0x0, symName: __ZNSt3__19allocatorIcEC2B8ue170006Ev, symObjAddr: 0x32C4, symBinAddr: 0x10000459C, symSize: 0x2C }
  - { offsetInCU: 0x15C64, offset: 0x15C64, size: 0x8, addend: 0x0, symName: __ZNSt3__116__non_trivial_ifILb1ENS_9allocatorIcEEEC2B8ue170006Ev, symObjAddr: 0x32F0, symBinAddr: 0x1000045C8, symSize: 0x14 }
  - { offsetInCU: 0x15C8E, offset: 0x15C8E, size: 0x8, addend: 0x0, symName: __ZNSt3__117__compressed_pairINS_12basic_stringIcNS_11char_traitsIcEENS_9allocatorIcEEE5__repES5_E5firstB8ue170006Ev, symObjAddr: 0x3304, symBinAddr: 0x1000045DC, symSize: 0x24 }
  - { offsetInCU: 0x15CB4, offset: 0x15CB4, size: 0x8, addend: 0x0, symName: __ZNSt3__122__compressed_pair_elemINS_12basic_stringIcNS_11char_traitsIcEENS_9allocatorIcEEE5__repELi0ELb0EE5__getB8ue170006Ev, symObjAddr: 0x3328, symBinAddr: 0x100004600, symSize: 0x14 }
  - { offsetInCU: 0x15CDA, offset: 0x15CDA, size: 0x8, addend: 0x0, symName: __ZN6PlayerD2Ev, symObjAddr: 0x333C, symBinAddr: 0x100004614, symSize: 0x30 }
  - { offsetInCU: 0x15D06, offset: 0x15D06, size: 0x8, addend: 0x0, symName: __ZNSt3__16chrono8durationIxNS_5ratioILl1ELl1000EEEEC2B8ue170006IiEERKT_PNS_9enable_ifIXaasr14is_convertibleIS8_xEE5valueooL_ZNS_17integral_constantIbLb0EE5valueEEntsr23treat_as_floating_pointIS6_EE5valueEvE4typeE, symObjAddr: 0x336C, symBinAddr: 0x100004644, symSize: 0x28 }
  - { offsetInCU: 0x15D52, offset: 0x15D52, size: 0x8, addend: 0x0, symName: __ZNKSt3__16vectorI8DialogueNS_9allocatorIS1_EEE11__make_iterB8ue170006EPKS1_, symObjAddr: 0x3394, symBinAddr: 0x10000466C, symSize: 0x30 }
  - { offsetInCU: 0x15D87, offset: 0x15D87, size: 0x8, addend: 0x0, symName: __ZNSt3__111__wrap_iterIPK8DialogueEC1B8ue170006ES3_, symObjAddr: 0x33C4, symBinAddr: 0x10000469C, symSize: 0x34 }
  - { offsetInCU: 0x15DBF, offset: 0x15DBF, size: 0x8, addend: 0x0, symName: __ZNSt3__111__wrap_iterIPK8DialogueEC2B8ue170006ES3_, symObjAddr: 0x33F8, symBinAddr: 0x1000046D0, symSize: 0x20 }
  - { offsetInCU: 0x15DF7, offset: 0x15DF7, size: 0x8, addend: 0x0, symName: __ZNKSt3__111__wrap_iterIPK8DialogueE4baseB8ue170006Ev, symObjAddr: 0x3460, symBinAddr: 0x100004738, symSize: 0x18 }
  - { offsetInCU: 0x15E1D, offset: 0x15E1D, size: 0x8, addend: 0x0, symName: __ZNKSt3__16vectorI6ChoiceNS_9allocatorIS1_EEE11__make_iterB8ue170006EPKS1_, symObjAddr: 0x3478, symBinAddr: 0x100004750, symSize: 0x30 }
  - { offsetInCU: 0x15E52, offset: 0x15E52, size: 0x8, addend: 0x0, symName: __ZNSt3__111__wrap_iterIPK6ChoiceEC1B8ue170006ES3_, symObjAddr: 0x34A8, symBinAddr: 0x100004780, symSize: 0x34 }
  - { offsetInCU: 0x15E8A, offset: 0x15E8A, size: 0x8, addend: 0x0, symName: __ZNSt3__111__wrap_iterIPK6ChoiceEC2B8ue170006ES3_, symObjAddr: 0x34DC, symBinAddr: 0x1000047B4, symSize: 0x20 }
  - { offsetInCU: 0x15EC2, offset: 0x15EC2, size: 0x8, addend: 0x0, symName: __ZNKSt3__111__wrap_iterIPK6ChoiceE4baseB8ue170006Ev, symObjAddr: 0x3544, symBinAddr: 0x10000481C, symSize: 0x18 }
  - { offsetInCU: 0x15EE8, offset: 0x15EE8, size: 0x8, addend: 0x0, symName: __ZNSt3__112basic_stringIcNS_11char_traitsIcEENS_9allocatorIcEEEC2B8ue170006ILi0EEEPKc, symObjAddr: 0x355C, symBinAddr: 0x100004834, symSize: 0x58 }
  - { offsetInCU: 0x15F27, offset: 0x15F27, size: 0x8, addend: 0x0, symName: __ZNSt3__111char_traitsIcE6lengthB8ue170006EPKc, symObjAddr: 0x35B4, symBinAddr: 0x10000488C, symSize: 0x34 }
  - { offsetInCU: 0x15F4A, offset: 0x15F4A, size: 0x8, addend: 0x0, symName: __ZN8DialogueD2Ev, symObjAddr: 0x360C, symBinAddr: 0x1000048E4, symSize: 0x38 }
  - { offsetInCU: 0x15F76, offset: 0x15F76, size: 0x8, addend: 0x0, symName: __ZNSt3__16vectorI8DialogueNS_9allocatorIS1_EEEC2B8ue170006ESt16initializer_listIS1_E, symObjAddr: 0x3644, symBinAddr: 0x10000491C, symSize: 0x120 }
  - { offsetInCU: 0x15FCC, offset: 0x15FCC, size: 0x8, addend: 0x0, symName: __ZNSt3__117__compressed_pairIP8DialogueNS_9allocatorIS1_EEEC1B8ue170006IDnNS_18__default_init_tagEEEOT_OT0_, symObjAddr: 0x3764, symBinAddr: 0x100004A3C, symSize: 0x3C }
  - { offsetInCU: 0x16024, offset: 0x16024, size: 0x8, addend: 0x0, symName: __ZNSt3__16vectorI8DialogueNS_9allocatorIS1_EEE16__destroy_vectorC1B8ue170006ERS4_, symObjAddr: 0x37E0, symBinAddr: 0x100004AB8, symSize: 0x34 }
  - { offsetInCU: 0x1605D, offset: 0x1605D, size: 0x8, addend: 0x0, symName: __ZNKSt16initializer_listI8DialogueE4sizeB8ue170006Ev, symObjAddr: 0x3814, symBinAddr: 0x100004AEC, symSize: 0x18 }
  - { offsetInCU: 0x16083, offset: 0x16083, size: 0x8, addend: 0x0, symName: __ZNSt3__16vectorI8DialogueNS_9allocatorIS1_EEE11__vallocateB8ue170006Em, symObjAddr: 0x382C, symBinAddr: 0x100004B04, symSize: 0xB4 }
  - { offsetInCU: 0x160C7, offset: 0x160C7, size: 0x8, addend: 0x0, symName: __ZNSt3__16vectorI8DialogueNS_9allocatorIS1_EEE18__construct_at_endIPKS1_S7_EEvT_T0_m, symObjAddr: 0x38E0, symBinAddr: 0x100004BB8, symSize: 0x8C }
  - { offsetInCU: 0x1613D, offset: 0x1613D, size: 0x8, addend: 0x0, symName: __ZNKSt16initializer_listI8DialogueE5beginB8ue170006Ev, symObjAddr: 0x396C, symBinAddr: 0x100004C44, symSize: 0x18 }
  - { offsetInCU: 0x16163, offset: 0x16163, size: 0x8, addend: 0x0, symName: __ZNKSt16initializer_listI8DialogueE3endB8ue170006Ev, symObjAddr: 0x3984, symBinAddr: 0x100004C5C, symSize: 0x28 }
  - { offsetInCU: 0x16189, offset: 0x16189, size: 0x8, addend: 0x0, symName: __ZNSt3__128__exception_guard_exceptionsINS_6vectorI8DialogueNS_9allocatorIS2_EEE16__destroy_vectorEE10__completeB8ue170006Ev, symObjAddr: 0x39AC, symBinAddr: 0x100004C84, symSize: 0x1C }
  - { offsetInCU: 0x161AF, offset: 0x161AF, size: 0x8, addend: 0x0, symName: __ZNSt3__128__exception_guard_exceptionsINS_6vectorI8DialogueNS_9allocatorIS2_EEE16__destroy_vectorEED1B8ue170006Ev, symObjAddr: 0x39C8, symBinAddr: 0x100004CA0, symSize: 0x2C }
  - { offsetInCU: 0x161D9, offset: 0x161D9, size: 0x8, addend: 0x0, symName: __ZNSt3__117__compressed_pairIP8DialogueNS_9allocatorIS1_EEEC2B8ue170006IDnNS_18__default_init_tagEEEOT_OT0_, symObjAddr: 0x39F4, symBinAddr: 0x100004CCC, symSize: 0x40 }
  - { offsetInCU: 0x16231, offset: 0x16231, size: 0x8, addend: 0x0, symName: __ZNSt3__122__compressed_pair_elemIP8DialogueLi0ELb0EEC2B8ue170006IDnvEEOT_, symObjAddr: 0x3A34, symBinAddr: 0x100004D0C, symSize: 0x1C }
  - { offsetInCU: 0x16273, offset: 0x16273, size: 0x8, addend: 0x0, symName: __ZNSt3__122__compressed_pair_elemINS_9allocatorI8DialogueEELi1ELb1EEC2B8ue170006ENS_18__default_init_tagE, symObjAddr: 0x3A50, symBinAddr: 0x100004D28, symSize: 0x2C }
  - { offsetInCU: 0x162A7, offset: 0x162A7, size: 0x8, addend: 0x0, symName: __ZNSt3__19allocatorI8DialogueEC2B8ue170006Ev, symObjAddr: 0x3A7C, symBinAddr: 0x100004D54, symSize: 0x2C }
  - { offsetInCU: 0x162D1, offset: 0x162D1, size: 0x8, addend: 0x0, symName: __ZNSt3__116__non_trivial_ifILb1ENS_9allocatorI8DialogueEEEC2B8ue170006Ev, symObjAddr: 0x3AA8, symBinAddr: 0x100004D80, symSize: 0x14 }
  - { offsetInCU: 0x162FB, offset: 0x162FB, size: 0x8, addend: 0x0, symName: __ZNSt3__128__exception_guard_exceptionsINS_6vectorI8DialogueNS_9allocatorIS2_EEE16__destroy_vectorEEC1B8ue170006ES6_, symObjAddr: 0x3ABC, symBinAddr: 0x100004D94, symSize: 0x34 }
  - { offsetInCU: 0x16333, offset: 0x16333, size: 0x8, addend: 0x0, symName: __ZNSt3__128__exception_guard_exceptionsINS_6vectorI8DialogueNS_9allocatorIS2_EEE16__destroy_vectorEEC2B8ue170006ES6_, symObjAddr: 0x3AF0, symBinAddr: 0x100004DC8, symSize: 0x24 }
  - { offsetInCU: 0x1636B, offset: 0x1636B, size: 0x8, addend: 0x0, symName: __ZNSt3__16vectorI8DialogueNS_9allocatorIS1_EEE16__destroy_vectorC2B8ue170006ERS4_, symObjAddr: 0x3B14, symBinAddr: 0x100004DEC, symSize: 0x20 }
  - { offsetInCU: 0x163A4, offset: 0x163A4, size: 0x8, addend: 0x0, symName: __ZNKSt3__16vectorI8DialogueNS_9allocatorIS1_EEE8max_sizeEv, symObjAddr: 0x3B34, symBinAddr: 0x100004E0C, symSize: 0x60 }
  - { offsetInCU: 0x163CC, offset: 0x163CC, size: 0x8, addend: 0x0, symName: __ZNKSt3__16vectorI8DialogueNS_9allocatorIS1_EEE20__throw_length_errorB8ue170006Ev, symObjAddr: 0x3B94, symBinAddr: 0x100004E6C, symSize: 0x1C }
  - { offsetInCU: 0x163F2, offset: 0x163F2, size: 0x8, addend: 0x0, symName: __ZNSt3__16vectorI8DialogueNS_9allocatorIS1_EEE7__allocB8ue170006Ev, symObjAddr: 0x3BF0, symBinAddr: 0x100004EC8, symSize: 0x28 }
  - { offsetInCU: 0x16418, offset: 0x16418, size: 0x8, addend: 0x0, symName: __ZNSt3__16vectorI8DialogueNS_9allocatorIS1_EEE9__end_capB8ue170006Ev, symObjAddr: 0x3C18, symBinAddr: 0x100004EF0, symSize: 0x28 }
  - { offsetInCU: 0x1643E, offset: 0x1643E, size: 0x8, addend: 0x0, symName: __ZNKSt3__16vectorI8DialogueNS_9allocatorIS1_EEE14__annotate_newB8ue170006Em, symObjAddr: 0x3C40, symBinAddr: 0x100004F18, symSize: 0xC8 }
  - { offsetInCU: 0x1647D, offset: 0x1647D, size: 0x8, addend: 0x0, symName: __ZNSt3__116allocator_traitsINS_9allocatorI8DialogueEEE8max_sizeB8ue170006IS3_vvEEmRKS3_, symObjAddr: 0x3D34, symBinAddr: 0x10000500C, symSize: 0x28 }
  - { offsetInCU: 0x164A8, offset: 0x164A8, size: 0x8, addend: 0x0, symName: __ZNKSt3__16vectorI8DialogueNS_9allocatorIS1_EEE7__allocB8ue170006Ev, symObjAddr: 0x3D5C, symBinAddr: 0x100005034, symSize: 0x28 }
  - { offsetInCU: 0x164CE, offset: 0x164CE, size: 0x8, addend: 0x0, symName: __ZNSt3__114numeric_limitsIlE3maxB8ue170006Ev, symObjAddr: 0x3D84, symBinAddr: 0x10000505C, symSize: 0x14 }
  - { offsetInCU: 0x164F6, offset: 0x164F6, size: 0x8, addend: 0x0, symName: __ZNKSt3__16__lessIvvEclB8ue170006ImmEEbRKT_RKT0_, symObjAddr: 0x3DEC, symBinAddr: 0x1000050C4, symSize: 0x34 }
  - { offsetInCU: 0x1654A, offset: 0x1654A, size: 0x8, addend: 0x0, symName: __ZNSt3__114numeric_limitsImE3maxB8ue170006Ev, symObjAddr: 0x3E20, symBinAddr: 0x1000050F8, symSize: 0x14 }
  - { offsetInCU: 0x1655E, offset: 0x1655E, size: 0x8, addend: 0x0, symName: __ZNSt3__123__libcpp_numeric_limitsImLb1EE3maxB8ue170006Ev, symObjAddr: 0x3E34, symBinAddr: 0x10000510C, symSize: 0x8 }
  - { offsetInCU: 0x16572, offset: 0x16572, size: 0x8, addend: 0x0, symName: __ZNKSt3__117__compressed_pairIP8DialogueNS_9allocatorIS1_EEE6secondB8ue170006Ev, symObjAddr: 0x3E3C, symBinAddr: 0x100005114, symSize: 0x24 }
  - { offsetInCU: 0x16598, offset: 0x16598, size: 0x8, addend: 0x0, symName: __ZNKSt3__122__compressed_pair_elemINS_9allocatorI8DialogueEELi1ELb1EE5__getB8ue170006Ev, symObjAddr: 0x3E60, symBinAddr: 0x100005138, symSize: 0x14 }
  - { offsetInCU: 0x165BE, offset: 0x165BE, size: 0x8, addend: 0x0, symName: __ZNSt3__123__libcpp_numeric_limitsIlLb1EE3maxB8ue170006Ev, symObjAddr: 0x3E74, symBinAddr: 0x10000514C, symSize: 0x8 }
  - { offsetInCU: 0x165D2, offset: 0x165D2, size: 0x8, addend: 0x0, symName: __ZNSt12length_errorC1B8ue170006EPKc, symObjAddr: 0x3EE0, symBinAddr: 0x1000051B8, symSize: 0x34 }
  - { offsetInCU: 0x1660A, offset: 0x1660A, size: 0x8, addend: 0x0, symName: __ZNSt12length_errorC2B8ue170006EPKc, symObjAddr: 0x3F14, symBinAddr: 0x1000051EC, symSize: 0x4C }
  - { offsetInCU: 0x16642, offset: 0x16642, size: 0x8, addend: 0x0, symName: __ZNSt3__19allocatorI8DialogueE8allocateB8ue170006Em, symObjAddr: 0x3F60, symBinAddr: 0x100005238, symSize: 0x5C }
  - { offsetInCU: 0x16676, offset: 0x16676, size: 0x8, addend: 0x0, symName: __ZNSt3__117__compressed_pairIP8DialogueNS_9allocatorIS1_EEE6secondB8ue170006Ev, symObjAddr: 0x40C0, symBinAddr: 0x100005398, symSize: 0x24 }
  - { offsetInCU: 0x1669C, offset: 0x1669C, size: 0x8, addend: 0x0, symName: __ZNSt3__122__compressed_pair_elemINS_9allocatorI8DialogueEELi1ELb1EE5__getB8ue170006Ev, symObjAddr: 0x40E4, symBinAddr: 0x1000053BC, symSize: 0x14 }
  - { offsetInCU: 0x166C2, offset: 0x166C2, size: 0x8, addend: 0x0, symName: __ZNSt3__117__compressed_pairIP8DialogueNS_9allocatorIS1_EEE5firstB8ue170006Ev, symObjAddr: 0x40F8, symBinAddr: 0x1000053D0, symSize: 0x24 }
  - { offsetInCU: 0x166E8, offset: 0x166E8, size: 0x8, addend: 0x0, symName: __ZNSt3__122__compressed_pair_elemIP8DialogueLi0ELb0EE5__getB8ue170006Ev, symObjAddr: 0x411C, symBinAddr: 0x1000053F4, symSize: 0x14 }
  - { offsetInCU: 0x1670E, offset: 0x1670E, size: 0x8, addend: 0x0, symName: __ZNKSt3__16vectorI8DialogueNS_9allocatorIS1_EEE31__annotate_contiguous_containerB8ue170006EPKvS6_S6_S6_, symObjAddr: 0x4130, symBinAddr: 0x100005408, symSize: 0x20 }
  - { offsetInCU: 0x16760, offset: 0x16760, size: 0x8, addend: 0x0, symName: __ZNKSt3__16vectorI8DialogueNS_9allocatorIS1_EEE4dataB8ue170006Ev, symObjAddr: 0x4150, symBinAddr: 0x100005428, symSize: 0x28 }
  - { offsetInCU: 0x16786, offset: 0x16786, size: 0x8, addend: 0x0, symName: __ZNKSt3__16vectorI8DialogueNS_9allocatorIS1_EEE8capacityB8ue170006Ev, symObjAddr: 0x4178, symBinAddr: 0x100005450, symSize: 0x40 }
  - { offsetInCU: 0x167AC, offset: 0x167AC, size: 0x8, addend: 0x0, symName: __ZNKSt3__16vectorI8DialogueNS_9allocatorIS1_EEE9__end_capB8ue170006Ev, symObjAddr: 0x41CC, symBinAddr: 0x1000054A4, symSize: 0x28 }
  - { offsetInCU: 0x167D2, offset: 0x167D2, size: 0x8, addend: 0x0, symName: __ZNKSt3__117__compressed_pairIP8DialogueNS_9allocatorIS1_EEE5firstB8ue170006Ev, symObjAddr: 0x41F4, symBinAddr: 0x1000054CC, symSize: 0x24 }
  - { offsetInCU: 0x167F8, offset: 0x167F8, size: 0x8, addend: 0x0, symName: __ZNKSt3__122__compressed_pair_elemIP8DialogueLi0ELb0EE5__getB8ue170006Ev, symObjAddr: 0x4218, symBinAddr: 0x1000054F0, symSize: 0x14 }
  - { offsetInCU: 0x16837, offset: 0x16837, size: 0x8, addend: 0x0, symName: __ZNSt3__16vectorI8DialogueNS_9allocatorIS1_EEE21_ConstructTransactionC1B8ue170006ERS4_m, symObjAddr: 0x422C, symBinAddr: 0x100005504, symSize: 0x3C }
  - { offsetInCU: 0x1687F, offset: 0x1687F, size: 0x8, addend: 0x0, symName: __ZNSt3__16vectorI8DialogueNS_9allocatorIS1_EEE21_ConstructTransactionD1B8ue170006Ev, symObjAddr: 0x42E8, symBinAddr: 0x1000055C0, symSize: 0x2C }
  - { offsetInCU: 0x168A9, offset: 0x168A9, size: 0x8, addend: 0x0, symName: __ZNSt3__16vectorI8DialogueNS_9allocatorIS1_EEE21_ConstructTransactionC2B8ue170006ERS4_m, symObjAddr: 0x4314, symBinAddr: 0x1000055EC, symSize: 0x4C }
  - { offsetInCU: 0x1690B, offset: 0x1690B, size: 0x8, addend: 0x0, symName: __ZNSt3__119__unwrap_range_implIPK8DialogueS3_E8__unwrapB8ue170006ES3_S3_, symObjAddr: 0x44F0, symBinAddr: 0x1000057C8, symSize: 0x58 }
  - { offsetInCU: 0x16942, offset: 0x16942, size: 0x8, addend: 0x0, symName: __ZNSt3__14pairIPK8DialogueS3_EC1B8ue170006IS3_S3_LPv0EEEOT_OT0_, symObjAddr: 0x456C, symBinAddr: 0x100005844, symSize: 0x3C }
  - { offsetInCU: 0x169A0, offset: 0x169A0, size: 0x8, addend: 0x0, symName: __ZNSt3__118__unwrap_iter_implIPK8DialogueLb1EE8__unwrapB8ue170006ES3_, symObjAddr: 0x45A8, symBinAddr: 0x100005880, symSize: 0x24 }
  - { offsetInCU: 0x169C3, offset: 0x169C3, size: 0x8, addend: 0x0, symName: __ZNSt3__14pairIPK8DialogueS3_EC2B8ue170006IS3_S3_LPv0EEEOT_OT0_, symObjAddr: 0x45E0, symBinAddr: 0x1000058B8, symSize: 0x34 }
  - { offsetInCU: 0x16A21, offset: 0x16A21, size: 0x8, addend: 0x0, symName: __ZNSt3__129_AllocatorDestroyRangeReverseINS_9allocatorI8DialogueEEPS2_EC1B8ue170006ERS3_RS4_S7_, symObjAddr: 0x4660, symBinAddr: 0x100005938, symSize: 0x44 }
  - { offsetInCU: 0x16A78, offset: 0x16A78, size: 0x8, addend: 0x0, symName: __ZNSt3__116allocator_traitsINS_9allocatorI8DialogueEEE9constructB8ue170006IS2_JRKS2_EvvEEvRS3_PT_DpOT0_, symObjAddr: 0x46A4, symBinAddr: 0x10000597C, symSize: 0x30 }
  - { offsetInCU: 0x16ACC, offset: 0x16ACC, size: 0x8, addend: 0x0, symName: __ZNSt3__128__exception_guard_exceptionsINS_29_AllocatorDestroyRangeReverseINS_9allocatorI8DialogueEEPS3_EEE10__completeB8ue170006Ev, symObjAddr: 0x46D4, symBinAddr: 0x1000059AC, symSize: 0x1C }
  - { offsetInCU: 0x16AF2, offset: 0x16AF2, size: 0x8, addend: 0x0, symName: __ZNSt3__128__exception_guard_exceptionsINS_29_AllocatorDestroyRangeReverseINS_9allocatorI8DialogueEEPS3_EEED1B8ue170006Ev, symObjAddr: 0x46F0, symBinAddr: 0x1000059C8, symSize: 0x2C }
  - { offsetInCU: 0x16B1C, offset: 0x16B1C, size: 0x8, addend: 0x0, symName: __ZNSt3__128__exception_guard_exceptionsINS_29_AllocatorDestroyRangeReverseINS_9allocatorI8DialogueEEPS3_EEEC1B8ue170006ES6_, symObjAddr: 0x471C, symBinAddr: 0x1000059F4, symSize: 0x34 }
  - { offsetInCU: 0x16B55, offset: 0x16B55, size: 0x8, addend: 0x0, symName: __ZNSt3__128__exception_guard_exceptionsINS_29_AllocatorDestroyRangeReverseINS_9allocatorI8DialogueEEPS3_EEEC2B8ue170006ES6_, symObjAddr: 0x4750, symBinAddr: 0x100005A28, symSize: 0x30 }
  - { offsetInCU: 0x16B8E, offset: 0x16B8E, size: 0x8, addend: 0x0, symName: __ZNSt3__129_AllocatorDestroyRangeReverseINS_9allocatorI8DialogueEEPS2_EC2B8ue170006ERS3_RS4_S7_, symObjAddr: 0x4780, symBinAddr: 0x100005A58, symSize: 0x38 }
  - { offsetInCU: 0x16BE5, offset: 0x16BE5, size: 0x8, addend: 0x0, symName: __ZN8DialogueC1ERKS_, symObjAddr: 0x47F4, symBinAddr: 0x100005ACC, symSize: 0x34 }
  - { offsetInCU: 0x16C1A, offset: 0x16C1A, size: 0x8, addend: 0x0, symName: __ZN8DialogueC2ERKS_, symObjAddr: 0x4828, symBinAddr: 0x100005B00, symSize: 0x70 }
  - { offsetInCU: 0x16C4F, offset: 0x16C4F, size: 0x8, addend: 0x0, symName: __ZNSt3__128__exception_guard_exceptionsINS_29_AllocatorDestroyRangeReverseINS_9allocatorI8DialogueEEPS3_EEED2B8ue170006Ev, symObjAddr: 0x4898, symBinAddr: 0x100005B70, symSize: 0x50 }
  - { offsetInCU: 0x16C79, offset: 0x16C79, size: 0x8, addend: 0x0, symName: __ZNKSt3__129_AllocatorDestroyRangeReverseINS_9allocatorI8DialogueEEPS2_EclB8ue170006Ev, symObjAddr: 0x48E8, symBinAddr: 0x100005BC0, symSize: 0x68 }
  - { offsetInCU: 0x16C9F, offset: 0x16C9F, size: 0x8, addend: 0x0, symName: __ZNSt3__116reverse_iteratorIP8DialogueEC1B8ue170006ES2_, symObjAddr: 0x49C0, symBinAddr: 0x100005C98, symSize: 0x34 }
  - { offsetInCU: 0x16CD7, offset: 0x16CD7, size: 0x8, addend: 0x0, symName: __ZNSt3__116allocator_traitsINS_9allocatorI8DialogueEEE7destroyB8ue170006IS2_vvEEvRS3_PT_, symObjAddr: 0x4A3C, symBinAddr: 0x100005D14, symSize: 0x28 }
  - { offsetInCU: 0x16D11, offset: 0x16D11, size: 0x8, addend: 0x0, symName: __ZNSt3__116reverse_iteratorIP8DialogueEppB8ue170006Ev, symObjAddr: 0x4A88, symBinAddr: 0x100005D60, symSize: 0x20 }
  - { offsetInCU: 0x16D37, offset: 0x16D37, size: 0x8, addend: 0x0, symName: __ZNKSt3__116reverse_iteratorIP8DialogueE4baseB8ue170006Ev, symObjAddr: 0x4AA8, symBinAddr: 0x100005D80, symSize: 0x18 }
  - { offsetInCU: 0x16D62, offset: 0x16D62, size: 0x8, addend: 0x0, symName: __ZNSt3__119__to_address_helperINS_16reverse_iteratorIP8DialogueEEvE6__callB8ue170006ERKS4_, symObjAddr: 0x4B08, symBinAddr: 0x100005DE0, symSize: 0x38 }
  - { offsetInCU: 0x16D85, offset: 0x16D85, size: 0x8, addend: 0x0, symName: __ZNKSt3__116reverse_iteratorIP8DialogueEptB8ue170006Ev, symObjAddr: 0x4B40, symBinAddr: 0x100005E18, symSize: 0x2C }
  - { offsetInCU: 0x16DAB, offset: 0x16DAB, size: 0x8, addend: 0x0, symName: __ZNSt3__116reverse_iteratorIP8DialogueEC2B8ue170006ES2_, symObjAddr: 0x4C24, symBinAddr: 0x100005EFC, symSize: 0x28 }
  - { offsetInCU: 0x16DE3, offset: 0x16DE3, size: 0x8, addend: 0x0, symName: __ZNSt3__118__unwrap_iter_implIP8DialogueLb1EE8__unwrapB8ue170006ES2_, symObjAddr: 0x4C4C, symBinAddr: 0x100005F24, symSize: 0x24 }
  - { offsetInCU: 0x16E06, offset: 0x16E06, size: 0x8, addend: 0x0, symName: __ZNSt3__118__unwrap_iter_implIP8DialogueLb1EE8__rewrapB8ue170006ES2_S2_, symObjAddr: 0x4C70, symBinAddr: 0x100005F48, symSize: 0x58 }
  - { offsetInCU: 0x16E37, offset: 0x16E37, size: 0x8, addend: 0x0, symName: __ZNSt3__16vectorI8DialogueNS_9allocatorIS1_EEE21_ConstructTransactionD2B8ue170006Ev, symObjAddr: 0x4CC8, symBinAddr: 0x100005FA0, symSize: 0x20 }
  - { offsetInCU: 0x16E61, offset: 0x16E61, size: 0x8, addend: 0x0, symName: __ZNSt3__128__exception_guard_exceptionsINS_6vectorI8DialogueNS_9allocatorIS2_EEE16__destroy_vectorEED2B8ue170006Ev, symObjAddr: 0x4CE8, symBinAddr: 0x100005FC0, symSize: 0x50 }
  - { offsetInCU: 0x16E8B, offset: 0x16E8B, size: 0x8, addend: 0x0, symName: __ZNSt3__16vectorI8DialogueNS_9allocatorIS1_EEE16__destroy_vectorclB8ue170006Ev, symObjAddr: 0x4D38, symBinAddr: 0x100006010, symSize: 0x90 }
  - { offsetInCU: 0x16EB1, offset: 0x16EB1, size: 0x8, addend: 0x0, symName: __ZNSt3__16vectorI8DialogueNS_9allocatorIS1_EEE7__clearB8ue170006Ev, symObjAddr: 0x4DC8, symBinAddr: 0x1000060A0, symSize: 0x28 }
  - { offsetInCU: 0x16ED7, offset: 0x16ED7, size: 0x8, addend: 0x0, symName: __ZNKSt3__16vectorI8DialogueNS_9allocatorIS1_EEE17__annotate_deleteB8ue170006Ev, symObjAddr: 0x4DF0, symBinAddr: 0x1000060C8, symSize: 0xD4 }
  - { offsetInCU: 0x16EFD, offset: 0x16EFD, size: 0x8, addend: 0x0, symName: __ZNSt3__116allocator_traitsINS_9allocatorI8DialogueEEE10deallocateB8ue170006ERS3_PS2_m, symObjAddr: 0x4EC4, symBinAddr: 0x10000619C, symSize: 0x34 }
  - { offsetInCU: 0x16F3F, offset: 0x16F3F, size: 0x8, addend: 0x0, symName: __ZNSt3__16vectorI8DialogueNS_9allocatorIS1_EEE22__base_destruct_at_endB8ue170006EPS1_, symObjAddr: 0x4EF8, symBinAddr: 0x1000061D0, symSize: 0x8C }
  - { offsetInCU: 0x16F83, offset: 0x16F83, size: 0x8, addend: 0x0, symName: __ZNKSt3__16vectorI8DialogueNS_9allocatorIS1_EEE4sizeB8ue170006Ev, symObjAddr: 0x4F84, symBinAddr: 0x10000625C, symSize: 0x28 }
  - { offsetInCU: 0x16FA9, offset: 0x16FA9, size: 0x8, addend: 0x0, symName: __ZNSt3__19allocatorI8DialogueE10deallocateB8ue170006EPS1_m, symObjAddr: 0x4FAC, symBinAddr: 0x100006284, symSize: 0x44 }
  - { offsetInCU: 0x16FEB, offset: 0x16FEB, size: 0x8, addend: 0x0, symName: __ZNSt3__16vectorI8DialogueNS_9allocatorIS1_EEED2B8ue170006Ev, symObjAddr: 0x50F8, symBinAddr: 0x1000063D0, symSize: 0x40 }
  - { offsetInCU: 0x17015, offset: 0x17015, size: 0x8, addend: 0x0, symName: __ZN14QuestionOptionD2Ev, symObjAddr: 0x5138, symBinAddr: 0x100006410, symSize: 0x2C }
  - { offsetInCU: 0x17041, offset: 0x17041, size: 0x8, addend: 0x0, symName: __ZNSt3__16vectorI14QuestionOptionNS_9allocatorIS1_EEEC2B8ue170006ESt16initializer_listIS1_E, symObjAddr: 0x5164, symBinAddr: 0x10000643C, symSize: 0x120 }
  - { offsetInCU: 0x17091, offset: 0x17091, size: 0x8, addend: 0x0, symName: __ZNSt3__117__compressed_pairIP14QuestionOptionNS_9allocatorIS1_EEEC1B8ue170006IDnNS_18__default_init_tagEEEOT_OT0_, symObjAddr: 0x5284, symBinAddr: 0x10000655C, symSize: 0x3C }
  - { offsetInCU: 0x170E9, offset: 0x170E9, size: 0x8, addend: 0x0, symName: __ZNSt3__16vectorI14QuestionOptionNS_9allocatorIS1_EEE16__destroy_vectorC1B8ue170006ERS4_, symObjAddr: 0x5300, symBinAddr: 0x1000065D8, symSize: 0x34 }
  - { offsetInCU: 0x17122, offset: 0x17122, size: 0x8, addend: 0x0, symName: __ZNKSt16initializer_listI14QuestionOptionE4sizeB8ue170006Ev, symObjAddr: 0x5334, symBinAddr: 0x10000660C, symSize: 0x18 }
  - { offsetInCU: 0x17148, offset: 0x17148, size: 0x8, addend: 0x0, symName: __ZNSt3__16vectorI14QuestionOptionNS_9allocatorIS1_EEE11__vallocateB8ue170006Em, symObjAddr: 0x534C, symBinAddr: 0x100006624, symSize: 0xAC }
  - { offsetInCU: 0x1718C, offset: 0x1718C, size: 0x8, addend: 0x0, symName: __ZNSt3__16vectorI14QuestionOptionNS_9allocatorIS1_EEE18__construct_at_endIPKS1_S7_EEvT_T0_m, symObjAddr: 0x53F8, symBinAddr: 0x1000066D0, symSize: 0x8C }
  - { offsetInCU: 0x17202, offset: 0x17202, size: 0x8, addend: 0x0, symName: __ZNKSt16initializer_listI14QuestionOptionE5beginB8ue170006Ev, symObjAddr: 0x5484, symBinAddr: 0x10000675C, symSize: 0x18 }
  - { offsetInCU: 0x17228, offset: 0x17228, size: 0x8, addend: 0x0, symName: __ZNKSt16initializer_listI14QuestionOptionE3endB8ue170006Ev, symObjAddr: 0x549C, symBinAddr: 0x100006774, symSize: 0x20 }
  - { offsetInCU: 0x1724E, offset: 0x1724E, size: 0x8, addend: 0x0, symName: __ZNSt3__128__exception_guard_exceptionsINS_6vectorI14QuestionOptionNS_9allocatorIS2_EEE16__destroy_vectorEE10__completeB8ue170006Ev, symObjAddr: 0x54BC, symBinAddr: 0x100006794, symSize: 0x1C }
  - { offsetInCU: 0x17274, offset: 0x17274, size: 0x8, addend: 0x0, symName: __ZNSt3__128__exception_guard_exceptionsINS_6vectorI14QuestionOptionNS_9allocatorIS2_EEE16__destroy_vectorEED1B8ue170006Ev, symObjAddr: 0x54D8, symBinAddr: 0x1000067B0, symSize: 0x2C }
  - { offsetInCU: 0x1729E, offset: 0x1729E, size: 0x8, addend: 0x0, symName: __ZNSt3__117__compressed_pairIP14QuestionOptionNS_9allocatorIS1_EEEC2B8ue170006IDnNS_18__default_init_tagEEEOT_OT0_, symObjAddr: 0x5504, symBinAddr: 0x1000067DC, symSize: 0x40 }
  - { offsetInCU: 0x172F6, offset: 0x172F6, size: 0x8, addend: 0x0, symName: __ZNSt3__122__compressed_pair_elemIP14QuestionOptionLi0ELb0EEC2B8ue170006IDnvEEOT_, symObjAddr: 0x5544, symBinAddr: 0x10000681C, symSize: 0x1C }
  - { offsetInCU: 0x17338, offset: 0x17338, size: 0x8, addend: 0x0, symName: __ZNSt3__122__compressed_pair_elemINS_9allocatorI14QuestionOptionEELi1ELb1EEC2B8ue170006ENS_18__default_init_tagE, symObjAddr: 0x5560, symBinAddr: 0x100006838, symSize: 0x2C }
  - { offsetInCU: 0x1736C, offset: 0x1736C, size: 0x8, addend: 0x0, symName: __ZNSt3__19allocatorI14QuestionOptionEC2B8ue170006Ev, symObjAddr: 0x558C, symBinAddr: 0x100006864, symSize: 0x2C }
  - { offsetInCU: 0x17396, offset: 0x17396, size: 0x8, addend: 0x0, symName: __ZNSt3__116__non_trivial_ifILb1ENS_9allocatorI14QuestionOptionEEEC2B8ue170006Ev, symObjAddr: 0x55B8, symBinAddr: 0x100006890, symSize: 0x14 }
  - { offsetInCU: 0x173C0, offset: 0x173C0, size: 0x8, addend: 0x0, symName: __ZNSt3__128__exception_guard_exceptionsINS_6vectorI14QuestionOptionNS_9allocatorIS2_EEE16__destroy_vectorEEC1B8ue170006ES6_, symObjAddr: 0x55CC, symBinAddr: 0x1000068A4, symSize: 0x34 }
  - { offsetInCU: 0x173F8, offset: 0x173F8, size: 0x8, addend: 0x0, symName: __ZNSt3__128__exception_guard_exceptionsINS_6vectorI14QuestionOptionNS_9allocatorIS2_EEE16__destroy_vectorEEC2B8ue170006ES6_, symObjAddr: 0x5600, symBinAddr: 0x1000068D8, symSize: 0x24 }
  - { offsetInCU: 0x17430, offset: 0x17430, size: 0x8, addend: 0x0, symName: __ZNSt3__16vectorI14QuestionOptionNS_9allocatorIS1_EEE16__destroy_vectorC2B8ue170006ERS4_, symObjAddr: 0x5624, symBinAddr: 0x1000068FC, symSize: 0x20 }
  - { offsetInCU: 0x17469, offset: 0x17469, size: 0x8, addend: 0x0, symName: __ZNKSt3__16vectorI14QuestionOptionNS_9allocatorIS1_EEE8max_sizeEv, symObjAddr: 0x5644, symBinAddr: 0x10000691C, symSize: 0x60 }
  - { offsetInCU: 0x17491, offset: 0x17491, size: 0x8, addend: 0x0, symName: __ZNKSt3__16vectorI14QuestionOptionNS_9allocatorIS1_EEE20__throw_length_errorB8ue170006Ev, symObjAddr: 0x56A4, symBinAddr: 0x10000697C, symSize: 0x1C }
  - { offsetInCU: 0x174B7, offset: 0x174B7, size: 0x8, addend: 0x0, symName: __ZNSt3__16vectorI14QuestionOptionNS_9allocatorIS1_EEE7__allocB8ue170006Ev, symObjAddr: 0x5700, symBinAddr: 0x1000069D8, symSize: 0x28 }
  - { offsetInCU: 0x174DD, offset: 0x174DD, size: 0x8, addend: 0x0, symName: __ZNSt3__16vectorI14QuestionOptionNS_9allocatorIS1_EEE9__end_capB8ue170006Ev, symObjAddr: 0x5728, symBinAddr: 0x100006A00, symSize: 0x28 }
  - { offsetInCU: 0x17503, offset: 0x17503, size: 0x8, addend: 0x0, symName: __ZNKSt3__16vectorI14QuestionOptionNS_9allocatorIS1_EEE14__annotate_newB8ue170006Em, symObjAddr: 0x5750, symBinAddr: 0x100006A28, symSize: 0xAC }
  - { offsetInCU: 0x17542, offset: 0x17542, size: 0x8, addend: 0x0, symName: __ZNSt3__116allocator_traitsINS_9allocatorI14QuestionOptionEEE8max_sizeB8ue170006IS3_vvEEmRKS3_, symObjAddr: 0x57FC, symBinAddr: 0x100006AD4, symSize: 0x28 }
  - { offsetInCU: 0x1756D, offset: 0x1756D, size: 0x8, addend: 0x0, symName: __ZNKSt3__16vectorI14QuestionOptionNS_9allocatorIS1_EEE7__allocB8ue170006Ev, symObjAddr: 0x5824, symBinAddr: 0x100006AFC, symSize: 0x28 }
  - { offsetInCU: 0x17593, offset: 0x17593, size: 0x8, addend: 0x0, symName: __ZNKSt3__117__compressed_pairIP14QuestionOptionNS_9allocatorIS1_EEE6secondB8ue170006Ev, symObjAddr: 0x584C, symBinAddr: 0x100006B24, symSize: 0x24 }
  - { offsetInCU: 0x175B9, offset: 0x175B9, size: 0x8, addend: 0x0, symName: __ZNKSt3__122__compressed_pair_elemINS_9allocatorI14QuestionOptionEELi1ELb1EE5__getB8ue170006Ev, symObjAddr: 0x5870, symBinAddr: 0x100006B48, symSize: 0x14 }
  - { offsetInCU: 0x175DF, offset: 0x175DF, size: 0x8, addend: 0x0, symName: __ZNSt3__19allocatorI14QuestionOptionE8allocateB8ue170006Em, symObjAddr: 0x5884, symBinAddr: 0x100006B5C, symSize: 0x58 }
  - { offsetInCU: 0x17613, offset: 0x17613, size: 0x8, addend: 0x0, symName: __ZNSt3__117__compressed_pairIP14QuestionOptionNS_9allocatorIS1_EEE6secondB8ue170006Ev, symObjAddr: 0x58DC, symBinAddr: 0x100006BB4, symSize: 0x24 }
  - { offsetInCU: 0x17639, offset: 0x17639, size: 0x8, addend: 0x0, symName: __ZNSt3__122__compressed_pair_elemINS_9allocatorI14QuestionOptionEELi1ELb1EE5__getB8ue170006Ev, symObjAddr: 0x5900, symBinAddr: 0x100006BD8, symSize: 0x14 }
  - { offsetInCU: 0x1765F, offset: 0x1765F, size: 0x8, addend: 0x0, symName: __ZNSt3__117__compressed_pairIP14QuestionOptionNS_9allocatorIS1_EEE5firstB8ue170006Ev, symObjAddr: 0x5914, symBinAddr: 0x100006BEC, symSize: 0x24 }
  - { offsetInCU: 0x17685, offset: 0x17685, size: 0x8, addend: 0x0, symName: __ZNSt3__122__compressed_pair_elemIP14QuestionOptionLi0ELb0EE5__getB8ue170006Ev, symObjAddr: 0x5938, symBinAddr: 0x100006C10, symSize: 0x14 }
  - { offsetInCU: 0x176AB, offset: 0x176AB, size: 0x8, addend: 0x0, symName: __ZNKSt3__16vectorI14QuestionOptionNS_9allocatorIS1_EEE31__annotate_contiguous_containerB8ue170006EPKvS6_S6_S6_, symObjAddr: 0x594C, symBinAddr: 0x100006C24, symSize: 0x20 }
  - { offsetInCU: 0x176FD, offset: 0x176FD, size: 0x8, addend: 0x0, symName: __ZNKSt3__16vectorI14QuestionOptionNS_9allocatorIS1_EEE4dataB8ue170006Ev, symObjAddr: 0x596C, symBinAddr: 0x100006C44, symSize: 0x28 }
  - { offsetInCU: 0x17723, offset: 0x17723, size: 0x8, addend: 0x0, symName: __ZNKSt3__16vectorI14QuestionOptionNS_9allocatorIS1_EEE8capacityB8ue170006Ev, symObjAddr: 0x5994, symBinAddr: 0x100006C6C, symSize: 0x40 }
  - { offsetInCU: 0x17749, offset: 0x17749, size: 0x8, addend: 0x0, symName: __ZNKSt3__16vectorI14QuestionOptionNS_9allocatorIS1_EEE9__end_capB8ue170006Ev, symObjAddr: 0x59E8, symBinAddr: 0x100006CC0, symSize: 0x28 }
  - { offsetInCU: 0x1776F, offset: 0x1776F, size: 0x8, addend: 0x0, symName: __ZNKSt3__117__compressed_pairIP14QuestionOptionNS_9allocatorIS1_EEE5firstB8ue170006Ev, symObjAddr: 0x5A10, symBinAddr: 0x100006CE8, symSize: 0x24 }
  - { offsetInCU: 0x17795, offset: 0x17795, size: 0x8, addend: 0x0, symName: __ZNKSt3__122__compressed_pair_elemIP14QuestionOptionLi0ELb0EE5__getB8ue170006Ev, symObjAddr: 0x5A34, symBinAddr: 0x100006D0C, symSize: 0x14 }
  - { offsetInCU: 0x177D4, offset: 0x177D4, size: 0x8, addend: 0x0, symName: __ZNSt3__16vectorI14QuestionOptionNS_9allocatorIS1_EEE21_ConstructTransactionC1B8ue170006ERS4_m, symObjAddr: 0x5A48, symBinAddr: 0x100006D20, symSize: 0x3C }
  - { offsetInCU: 0x1781C, offset: 0x1781C, size: 0x8, addend: 0x0, symName: __ZNSt3__16vectorI14QuestionOptionNS_9allocatorIS1_EEE21_ConstructTransactionD1B8ue170006Ev, symObjAddr: 0x5B04, symBinAddr: 0x100006DDC, symSize: 0x2C }
  - { offsetInCU: 0x17846, offset: 0x17846, size: 0x8, addend: 0x0, symName: __ZNSt3__16vectorI14QuestionOptionNS_9allocatorIS1_EEE21_ConstructTransactionC2B8ue170006ERS4_m, symObjAddr: 0x5B30, symBinAddr: 0x100006E08, symSize: 0x44 }
  - { offsetInCU: 0x178A8, offset: 0x178A8, size: 0x8, addend: 0x0, symName: __ZNSt3__119__unwrap_range_implIPK14QuestionOptionS3_E8__unwrapB8ue170006ES3_S3_, symObjAddr: 0x5D04, symBinAddr: 0x100006FDC, symSize: 0x58 }
  - { offsetInCU: 0x178DF, offset: 0x178DF, size: 0x8, addend: 0x0, symName: __ZNSt3__14pairIPK14QuestionOptionS3_EC1B8ue170006IS3_S3_LPv0EEEOT_OT0_, symObjAddr: 0x5D80, symBinAddr: 0x100007058, symSize: 0x3C }
  - { offsetInCU: 0x1793D, offset: 0x1793D, size: 0x8, addend: 0x0, symName: __ZNSt3__118__unwrap_iter_implIPK14QuestionOptionLb1EE8__unwrapB8ue170006ES3_, symObjAddr: 0x5DBC, symBinAddr: 0x100007094, symSize: 0x24 }
  - { offsetInCU: 0x17960, offset: 0x17960, size: 0x8, addend: 0x0, symName: __ZNSt3__14pairIPK14QuestionOptionS3_EC2B8ue170006IS3_S3_LPv0EEEOT_OT0_, symObjAddr: 0x5DF4, symBinAddr: 0x1000070CC, symSize: 0x34 }
  - { offsetInCU: 0x179BE, offset: 0x179BE, size: 0x8, addend: 0x0, symName: __ZNSt3__129_AllocatorDestroyRangeReverseINS_9allocatorI14QuestionOptionEEPS2_EC1B8ue170006ERS3_RS4_S7_, symObjAddr: 0x5E74, symBinAddr: 0x10000714C, symSize: 0x44 }
  - { offsetInCU: 0x17A1A, offset: 0x17A1A, size: 0x8, addend: 0x0, symName: __ZNSt3__116allocator_traitsINS_9allocatorI14QuestionOptionEEE9constructB8ue170006IS2_JRKS2_EvvEEvRS3_PT_DpOT0_, symObjAddr: 0x5EB8, symBinAddr: 0x100007190, symSize: 0x30 }
  - { offsetInCU: 0x17A6E, offset: 0x17A6E, size: 0x8, addend: 0x0, symName: __ZNSt3__128__exception_guard_exceptionsINS_29_AllocatorDestroyRangeReverseINS_9allocatorI14QuestionOptionEEPS3_EEE10__completeB8ue170006Ev, symObjAddr: 0x5EE8, symBinAddr: 0x1000071C0, symSize: 0x1C }
  - { offsetInCU: 0x17A94, offset: 0x17A94, size: 0x8, addend: 0x0, symName: __ZNSt3__128__exception_guard_exceptionsINS_29_AllocatorDestroyRangeReverseINS_9allocatorI14QuestionOptionEEPS3_EEED1B8ue170006Ev, symObjAddr: 0x5F04, symBinAddr: 0x1000071DC, symSize: 0x2C }
  - { offsetInCU: 0x17ABE, offset: 0x17ABE, size: 0x8, addend: 0x0, symName: __ZNSt3__128__exception_guard_exceptionsINS_29_AllocatorDestroyRangeReverseINS_9allocatorI14QuestionOptionEEPS3_EEEC1B8ue170006ES6_, symObjAddr: 0x5F30, symBinAddr: 0x100007208, symSize: 0x34 }
  - { offsetInCU: 0x17AF7, offset: 0x17AF7, size: 0x8, addend: 0x0, symName: __ZNSt3__128__exception_guard_exceptionsINS_29_AllocatorDestroyRangeReverseINS_9allocatorI14QuestionOptionEEPS3_EEEC2B8ue170006ES6_, symObjAddr: 0x5F64, symBinAddr: 0x10000723C, symSize: 0x30 }
  - { offsetInCU: 0x17B30, offset: 0x17B30, size: 0x8, addend: 0x0, symName: __ZNSt3__129_AllocatorDestroyRangeReverseINS_9allocatorI14QuestionOptionEEPS2_EC2B8ue170006ERS3_RS4_S7_, symObjAddr: 0x5F94, symBinAddr: 0x10000726C, symSize: 0x38 }
  - { offsetInCU: 0x17B87, offset: 0x17B87, size: 0x8, addend: 0x0, symName: __ZN14QuestionOptionC1ERKS_, symObjAddr: 0x6008, symBinAddr: 0x1000072E0, symSize: 0x34 }
  - { offsetInCU: 0x17BBC, offset: 0x17BBC, size: 0x8, addend: 0x0, symName: __ZN14QuestionOptionC2ERKS_, symObjAddr: 0x603C, symBinAddr: 0x100007314, symSize: 0x44 }
  - { offsetInCU: 0x17BF1, offset: 0x17BF1, size: 0x8, addend: 0x0, symName: __ZNSt3__128__exception_guard_exceptionsINS_29_AllocatorDestroyRangeReverseINS_9allocatorI14QuestionOptionEEPS3_EEED2B8ue170006Ev, symObjAddr: 0x6080, symBinAddr: 0x100007358, symSize: 0x50 }
  - { offsetInCU: 0x17C1B, offset: 0x17C1B, size: 0x8, addend: 0x0, symName: __ZNKSt3__129_AllocatorDestroyRangeReverseINS_9allocatorI14QuestionOptionEEPS2_EclB8ue170006Ev, symObjAddr: 0x60D0, symBinAddr: 0x1000073A8, symSize: 0x68 }
  - { offsetInCU: 0x17C41, offset: 0x17C41, size: 0x8, addend: 0x0, symName: __ZNSt3__116reverse_iteratorIP14QuestionOptionEC1B8ue170006ES2_, symObjAddr: 0x61A8, symBinAddr: 0x100007480, symSize: 0x34 }
  - { offsetInCU: 0x17C79, offset: 0x17C79, size: 0x8, addend: 0x0, symName: __ZNSt3__116allocator_traitsINS_9allocatorI14QuestionOptionEEE7destroyB8ue170006IS2_vvEEvRS3_PT_, symObjAddr: 0x6224, symBinAddr: 0x1000074FC, symSize: 0x28 }
  - { offsetInCU: 0x17CB3, offset: 0x17CB3, size: 0x8, addend: 0x0, symName: __ZNSt3__116reverse_iteratorIP14QuestionOptionEppB8ue170006Ev, symObjAddr: 0x6270, symBinAddr: 0x100007548, symSize: 0x20 }
  - { offsetInCU: 0x17CD9, offset: 0x17CD9, size: 0x8, addend: 0x0, symName: __ZNKSt3__116reverse_iteratorIP14QuestionOptionE4baseB8ue170006Ev, symObjAddr: 0x6290, symBinAddr: 0x100007568, symSize: 0x18 }
  - { offsetInCU: 0x17D04, offset: 0x17D04, size: 0x8, addend: 0x0, symName: __ZNSt3__119__to_address_helperINS_16reverse_iteratorIP14QuestionOptionEEvE6__callB8ue170006ERKS4_, symObjAddr: 0x62F0, symBinAddr: 0x1000075C8, symSize: 0x38 }
  - { offsetInCU: 0x17D27, offset: 0x17D27, size: 0x8, addend: 0x0, symName: __ZNKSt3__116reverse_iteratorIP14QuestionOptionEptB8ue170006Ev, symObjAddr: 0x6328, symBinAddr: 0x100007600, symSize: 0x2C }
  - { offsetInCU: 0x17D4D, offset: 0x17D4D, size: 0x8, addend: 0x0, symName: __ZNSt3__116reverse_iteratorIP14QuestionOptionEC2B8ue170006ES2_, symObjAddr: 0x63F0, symBinAddr: 0x1000076C8, symSize: 0x28 }
  - { offsetInCU: 0x17D85, offset: 0x17D85, size: 0x8, addend: 0x0, symName: __ZNSt3__118__unwrap_iter_implIP14QuestionOptionLb1EE8__unwrapB8ue170006ES2_, symObjAddr: 0x6418, symBinAddr: 0x1000076F0, symSize: 0x24 }
  - { offsetInCU: 0x17DA8, offset: 0x17DA8, size: 0x8, addend: 0x0, symName: __ZNSt3__118__unwrap_iter_implIP14QuestionOptionLb1EE8__rewrapB8ue170006ES2_S2_, symObjAddr: 0x643C, symBinAddr: 0x100007714, symSize: 0x50 }
  - { offsetInCU: 0x17DD9, offset: 0x17DD9, size: 0x8, addend: 0x0, symName: __ZNSt3__16vectorI14QuestionOptionNS_9allocatorIS1_EEE21_ConstructTransactionD2B8ue170006Ev, symObjAddr: 0x648C, symBinAddr: 0x100007764, symSize: 0x20 }
  - { offsetInCU: 0x17E03, offset: 0x17E03, size: 0x8, addend: 0x0, symName: __ZNSt3__128__exception_guard_exceptionsINS_6vectorI14QuestionOptionNS_9allocatorIS2_EEE16__destroy_vectorEED2B8ue170006Ev, symObjAddr: 0x64AC, symBinAddr: 0x100007784, symSize: 0x50 }
  - { offsetInCU: 0x17E2D, offset: 0x17E2D, size: 0x8, addend: 0x0, symName: __ZNSt3__16vectorI14QuestionOptionNS_9allocatorIS1_EEE16__destroy_vectorclB8ue170006Ev, symObjAddr: 0x64FC, symBinAddr: 0x1000077D4, symSize: 0x90 }
  - { offsetInCU: 0x17E53, offset: 0x17E53, size: 0x8, addend: 0x0, symName: __ZNSt3__16vectorI14QuestionOptionNS_9allocatorIS1_EEE7__clearB8ue170006Ev, symObjAddr: 0x658C, symBinAddr: 0x100007864, symSize: 0x28 }
  - { offsetInCU: 0x17E79, offset: 0x17E79, size: 0x8, addend: 0x0, symName: __ZNKSt3__16vectorI14QuestionOptionNS_9allocatorIS1_EEE17__annotate_deleteB8ue170006Ev, symObjAddr: 0x65B4, symBinAddr: 0x10000788C, symSize: 0xB8 }
  - { offsetInCU: 0x17E9F, offset: 0x17E9F, size: 0x8, addend: 0x0, symName: __ZNSt3__116allocator_traitsINS_9allocatorI14QuestionOptionEEE10deallocateB8ue170006ERS3_PS2_m, symObjAddr: 0x666C, symBinAddr: 0x100007944, symSize: 0x34 }
  - { offsetInCU: 0x17EE1, offset: 0x17EE1, size: 0x8, addend: 0x0, symName: __ZNSt3__16vectorI14QuestionOptionNS_9allocatorIS1_EEE22__base_destruct_at_endB8ue170006EPS1_, symObjAddr: 0x66A0, symBinAddr: 0x100007978, symSize: 0x8C }
  - { offsetInCU: 0x17F25, offset: 0x17F25, size: 0x8, addend: 0x0, symName: __ZNSt3__19allocatorI14QuestionOptionE10deallocateB8ue170006EPS1_m, symObjAddr: 0x672C, symBinAddr: 0x100007A04, symSize: 0x40 }
  - { offsetInCU: 0x17F67, offset: 0x17F67, size: 0x8, addend: 0x0, symName: __ZNSt3__16vectorI8QuestionNS_9allocatorIS1_EEEC2B8ue170006ESt16initializer_listIS1_E, symObjAddr: 0x676C, symBinAddr: 0x100007A44, symSize: 0x120 }
  - { offsetInCU: 0x17FB7, offset: 0x17FB7, size: 0x8, addend: 0x0, symName: __ZNSt3__117__compressed_pairIP8QuestionNS_9allocatorIS1_EEEC1B8ue170006IDnNS_18__default_init_tagEEEOT_OT0_, symObjAddr: 0x688C, symBinAddr: 0x100007B64, symSize: 0x3C }
  - { offsetInCU: 0x1800F, offset: 0x1800F, size: 0x8, addend: 0x0, symName: __ZNSt3__16vectorI8QuestionNS_9allocatorIS1_EEE16__destroy_vectorC1B8ue170006ERS4_, symObjAddr: 0x6908, symBinAddr: 0x100007BE0, symSize: 0x34 }
  - { offsetInCU: 0x18048, offset: 0x18048, size: 0x8, addend: 0x0, symName: __ZNKSt16initializer_listI8QuestionE4sizeB8ue170006Ev, symObjAddr: 0x693C, symBinAddr: 0x100007C14, symSize: 0x18 }
  - { offsetInCU: 0x1806E, offset: 0x1806E, size: 0x8, addend: 0x0, symName: __ZNSt3__16vectorI8QuestionNS_9allocatorIS1_EEE11__vallocateB8ue170006Em, symObjAddr: 0x6954, symBinAddr: 0x100007C2C, symSize: 0xB4 }
  - { offsetInCU: 0x180B2, offset: 0x180B2, size: 0x8, addend: 0x0, symName: __ZNSt3__16vectorI8QuestionNS_9allocatorIS1_EEE18__construct_at_endIPKS1_S7_EEvT_T0_m, symObjAddr: 0x6A08, symBinAddr: 0x100007CE0, symSize: 0x8C }
  - { offsetInCU: 0x18128, offset: 0x18128, size: 0x8, addend: 0x0, symName: __ZNKSt16initializer_listI8QuestionE5beginB8ue170006Ev, symObjAddr: 0x6A94, symBinAddr: 0x100007D6C, symSize: 0x18 }
  - { offsetInCU: 0x1814E, offset: 0x1814E, size: 0x8, addend: 0x0, symName: __ZNKSt16initializer_listI8QuestionE3endB8ue170006Ev, symObjAddr: 0x6AAC, symBinAddr: 0x100007D84, symSize: 0x28 }
  - { offsetInCU: 0x18174, offset: 0x18174, size: 0x8, addend: 0x0, symName: __ZNSt3__128__exception_guard_exceptionsINS_6vectorI8QuestionNS_9allocatorIS2_EEE16__destroy_vectorEE10__completeB8ue170006Ev, symObjAddr: 0x6AD4, symBinAddr: 0x100007DAC, symSize: 0x1C }
  - { offsetInCU: 0x1819A, offset: 0x1819A, size: 0x8, addend: 0x0, symName: __ZNSt3__128__exception_guard_exceptionsINS_6vectorI8QuestionNS_9allocatorIS2_EEE16__destroy_vectorEED1B8ue170006Ev, symObjAddr: 0x6AF0, symBinAddr: 0x100007DC8, symSize: 0x2C }
  - { offsetInCU: 0x181C4, offset: 0x181C4, size: 0x8, addend: 0x0, symName: __ZNSt3__117__compressed_pairIP8QuestionNS_9allocatorIS1_EEEC2B8ue170006IDnNS_18__default_init_tagEEEOT_OT0_, symObjAddr: 0x6B1C, symBinAddr: 0x100007DF4, symSize: 0x40 }
  - { offsetInCU: 0x1821C, offset: 0x1821C, size: 0x8, addend: 0x0, symName: __ZNSt3__122__compressed_pair_elemIP8QuestionLi0ELb0EEC2B8ue170006IDnvEEOT_, symObjAddr: 0x6B5C, symBinAddr: 0x100007E34, symSize: 0x1C }
  - { offsetInCU: 0x1825E, offset: 0x1825E, size: 0x8, addend: 0x0, symName: __ZNSt3__122__compressed_pair_elemINS_9allocatorI8QuestionEELi1ELb1EEC2B8ue170006ENS_18__default_init_tagE, symObjAddr: 0x6B78, symBinAddr: 0x100007E50, symSize: 0x2C }
  - { offsetInCU: 0x18292, offset: 0x18292, size: 0x8, addend: 0x0, symName: __ZNSt3__19allocatorI8QuestionEC2B8ue170006Ev, symObjAddr: 0x6BA4, symBinAddr: 0x100007E7C, symSize: 0x2C }
  - { offsetInCU: 0x182BC, offset: 0x182BC, size: 0x8, addend: 0x0, symName: __ZNSt3__116__non_trivial_ifILb1ENS_9allocatorI8QuestionEEEC2B8ue170006Ev, symObjAddr: 0x6BD0, symBinAddr: 0x100007EA8, symSize: 0x14 }
  - { offsetInCU: 0x182E6, offset: 0x182E6, size: 0x8, addend: 0x0, symName: __ZNSt3__128__exception_guard_exceptionsINS_6vectorI8QuestionNS_9allocatorIS2_EEE16__destroy_vectorEEC1B8ue170006ES6_, symObjAddr: 0x6BE4, symBinAddr: 0x100007EBC, symSize: 0x34 }
  - { offsetInCU: 0x1831E, offset: 0x1831E, size: 0x8, addend: 0x0, symName: __ZNSt3__128__exception_guard_exceptionsINS_6vectorI8QuestionNS_9allocatorIS2_EEE16__destroy_vectorEEC2B8ue170006ES6_, symObjAddr: 0x6C18, symBinAddr: 0x100007EF0, symSize: 0x24 }
  - { offsetInCU: 0x18356, offset: 0x18356, size: 0x8, addend: 0x0, symName: __ZNSt3__16vectorI8QuestionNS_9allocatorIS1_EEE16__destroy_vectorC2B8ue170006ERS4_, symObjAddr: 0x6C3C, symBinAddr: 0x100007F14, symSize: 0x20 }
  - { offsetInCU: 0x1838F, offset: 0x1838F, size: 0x8, addend: 0x0, symName: __ZNKSt3__16vectorI8QuestionNS_9allocatorIS1_EEE8max_sizeEv, symObjAddr: 0x6C5C, symBinAddr: 0x100007F34, symSize: 0x60 }
  - { offsetInCU: 0x183B7, offset: 0x183B7, size: 0x8, addend: 0x0, symName: __ZNKSt3__16vectorI8QuestionNS_9allocatorIS1_EEE20__throw_length_errorB8ue170006Ev, symObjAddr: 0x6CBC, symBinAddr: 0x100007F94, symSize: 0x1C }
  - { offsetInCU: 0x183DD, offset: 0x183DD, size: 0x8, addend: 0x0, symName: __ZNSt3__16vectorI8QuestionNS_9allocatorIS1_EEE7__allocB8ue170006Ev, symObjAddr: 0x6D18, symBinAddr: 0x100007FF0, symSize: 0x28 }
  - { offsetInCU: 0x18403, offset: 0x18403, size: 0x8, addend: 0x0, symName: __ZNSt3__16vectorI8QuestionNS_9allocatorIS1_EEE9__end_capB8ue170006Ev, symObjAddr: 0x6D40, symBinAddr: 0x100008018, symSize: 0x28 }
  - { offsetInCU: 0x18429, offset: 0x18429, size: 0x8, addend: 0x0, symName: __ZNKSt3__16vectorI8QuestionNS_9allocatorIS1_EEE14__annotate_newB8ue170006Em, symObjAddr: 0x6D68, symBinAddr: 0x100008040, symSize: 0xC8 }
  - { offsetInCU: 0x18468, offset: 0x18468, size: 0x8, addend: 0x0, symName: __ZNSt3__116allocator_traitsINS_9allocatorI8QuestionEEE8max_sizeB8ue170006IS3_vvEEmRKS3_, symObjAddr: 0x6E30, symBinAddr: 0x100008108, symSize: 0x28 }
  - { offsetInCU: 0x18493, offset: 0x18493, size: 0x8, addend: 0x0, symName: __ZNKSt3__16vectorI8QuestionNS_9allocatorIS1_EEE7__allocB8ue170006Ev, symObjAddr: 0x6E58, symBinAddr: 0x100008130, symSize: 0x28 }
  - { offsetInCU: 0x184B9, offset: 0x184B9, size: 0x8, addend: 0x0, symName: __ZNKSt3__117__compressed_pairIP8QuestionNS_9allocatorIS1_EEE6secondB8ue170006Ev, symObjAddr: 0x6E80, symBinAddr: 0x100008158, symSize: 0x24 }
  - { offsetInCU: 0x184DF, offset: 0x184DF, size: 0x8, addend: 0x0, symName: __ZNKSt3__122__compressed_pair_elemINS_9allocatorI8QuestionEELi1ELb1EE5__getB8ue170006Ev, symObjAddr: 0x6EA4, symBinAddr: 0x10000817C, symSize: 0x14 }
  - { offsetInCU: 0x18505, offset: 0x18505, size: 0x8, addend: 0x0, symName: __ZNSt3__19allocatorI8QuestionE8allocateB8ue170006Em, symObjAddr: 0x6EB8, symBinAddr: 0x100008190, symSize: 0x5C }
  - { offsetInCU: 0x18539, offset: 0x18539, size: 0x8, addend: 0x0, symName: __ZNSt3__117__compressed_pairIP8QuestionNS_9allocatorIS1_EEE6secondB8ue170006Ev, symObjAddr: 0x6F14, symBinAddr: 0x1000081EC, symSize: 0x24 }
  - { offsetInCU: 0x1855F, offset: 0x1855F, size: 0x8, addend: 0x0, symName: __ZNSt3__122__compressed_pair_elemINS_9allocatorI8QuestionEELi1ELb1EE5__getB8ue170006Ev, symObjAddr: 0x6F38, symBinAddr: 0x100008210, symSize: 0x14 }
  - { offsetInCU: 0x18585, offset: 0x18585, size: 0x8, addend: 0x0, symName: __ZNSt3__117__compressed_pairIP8QuestionNS_9allocatorIS1_EEE5firstB8ue170006Ev, symObjAddr: 0x6F4C, symBinAddr: 0x100008224, symSize: 0x24 }
  - { offsetInCU: 0x185AB, offset: 0x185AB, size: 0x8, addend: 0x0, symName: __ZNSt3__122__compressed_pair_elemIP8QuestionLi0ELb0EE5__getB8ue170006Ev, symObjAddr: 0x6F70, symBinAddr: 0x100008248, symSize: 0x14 }
  - { offsetInCU: 0x185D1, offset: 0x185D1, size: 0x8, addend: 0x0, symName: __ZNKSt3__16vectorI8QuestionNS_9allocatorIS1_EEE31__annotate_contiguous_containerB8ue170006EPKvS6_S6_S6_, symObjAddr: 0x6F84, symBinAddr: 0x10000825C, symSize: 0x20 }
  - { offsetInCU: 0x18623, offset: 0x18623, size: 0x8, addend: 0x0, symName: __ZNKSt3__16vectorI8QuestionNS_9allocatorIS1_EEE4dataB8ue170006Ev, symObjAddr: 0x6FA4, symBinAddr: 0x10000827C, symSize: 0x28 }
  - { offsetInCU: 0x18649, offset: 0x18649, size: 0x8, addend: 0x0, symName: __ZNKSt3__16vectorI8QuestionNS_9allocatorIS1_EEE8capacityB8ue170006Ev, symObjAddr: 0x6FCC, symBinAddr: 0x1000082A4, symSize: 0x40 }
  - { offsetInCU: 0x1866F, offset: 0x1866F, size: 0x8, addend: 0x0, symName: __ZNKSt3__16vectorI8QuestionNS_9allocatorIS1_EEE9__end_capB8ue170006Ev, symObjAddr: 0x7020, symBinAddr: 0x1000082F8, symSize: 0x28 }
  - { offsetInCU: 0x18695, offset: 0x18695, size: 0x8, addend: 0x0, symName: __ZNKSt3__117__compressed_pairIP8QuestionNS_9allocatorIS1_EEE5firstB8ue170006Ev, symObjAddr: 0x7048, symBinAddr: 0x100008320, symSize: 0x24 }
  - { offsetInCU: 0x186BB, offset: 0x186BB, size: 0x8, addend: 0x0, symName: __ZNKSt3__122__compressed_pair_elemIP8QuestionLi0ELb0EE5__getB8ue170006Ev, symObjAddr: 0x706C, symBinAddr: 0x100008344, symSize: 0x14 }
  - { offsetInCU: 0x186FA, offset: 0x186FA, size: 0x8, addend: 0x0, symName: __ZNSt3__16vectorI8QuestionNS_9allocatorIS1_EEE21_ConstructTransactionC1B8ue170006ERS4_m, symObjAddr: 0x7080, symBinAddr: 0x100008358, symSize: 0x3C }
  - { offsetInCU: 0x18742, offset: 0x18742, size: 0x8, addend: 0x0, symName: __ZNSt3__16vectorI8QuestionNS_9allocatorIS1_EEE21_ConstructTransactionD1B8ue170006Ev, symObjAddr: 0x713C, symBinAddr: 0x100008414, symSize: 0x2C }
  - { offsetInCU: 0x1876C, offset: 0x1876C, size: 0x8, addend: 0x0, symName: __ZNSt3__16vectorI8QuestionNS_9allocatorIS1_EEE21_ConstructTransactionC2B8ue170006ERS4_m, symObjAddr: 0x7168, symBinAddr: 0x100008440, symSize: 0x4C }
  - { offsetInCU: 0x187CE, offset: 0x187CE, size: 0x8, addend: 0x0, symName: __ZNSt3__119__unwrap_range_implIPK8QuestionS3_E8__unwrapB8ue170006ES3_S3_, symObjAddr: 0x7344, symBinAddr: 0x10000861C, symSize: 0x58 }
  - { offsetInCU: 0x18805, offset: 0x18805, size: 0x8, addend: 0x0, symName: __ZNSt3__14pairIPK8QuestionS3_EC1B8ue170006IS3_S3_LPv0EEEOT_OT0_, symObjAddr: 0x73C0, symBinAddr: 0x100008698, symSize: 0x3C }
  - { offsetInCU: 0x18863, offset: 0x18863, size: 0x8, addend: 0x0, symName: __ZNSt3__118__unwrap_iter_implIPK8QuestionLb1EE8__unwrapB8ue170006ES3_, symObjAddr: 0x73FC, symBinAddr: 0x1000086D4, symSize: 0x24 }
  - { offsetInCU: 0x18886, offset: 0x18886, size: 0x8, addend: 0x0, symName: __ZNSt3__14pairIPK8QuestionS3_EC2B8ue170006IS3_S3_LPv0EEEOT_OT0_, symObjAddr: 0x7434, symBinAddr: 0x10000870C, symSize: 0x34 }
  - { offsetInCU: 0x188E4, offset: 0x188E4, size: 0x8, addend: 0x0, symName: __ZNSt3__129_AllocatorDestroyRangeReverseINS_9allocatorI8QuestionEEPS2_EC1B8ue170006ERS3_RS4_S7_, symObjAddr: 0x74B4, symBinAddr: 0x10000878C, symSize: 0x44 }
  - { offsetInCU: 0x18940, offset: 0x18940, size: 0x8, addend: 0x0, symName: __ZNSt3__116allocator_traitsINS_9allocatorI8QuestionEEE9constructB8ue170006IS2_JRKS2_EvvEEvRS3_PT_DpOT0_, symObjAddr: 0x74F8, symBinAddr: 0x1000087D0, symSize: 0x30 }
  - { offsetInCU: 0x18994, offset: 0x18994, size: 0x8, addend: 0x0, symName: __ZNSt3__128__exception_guard_exceptionsINS_29_AllocatorDestroyRangeReverseINS_9allocatorI8QuestionEEPS3_EEE10__completeB8ue170006Ev, symObjAddr: 0x7528, symBinAddr: 0x100008800, symSize: 0x1C }
  - { offsetInCU: 0x189BA, offset: 0x189BA, size: 0x8, addend: 0x0, symName: __ZNSt3__128__exception_guard_exceptionsINS_29_AllocatorDestroyRangeReverseINS_9allocatorI8QuestionEEPS3_EEED1B8ue170006Ev, symObjAddr: 0x7544, symBinAddr: 0x10000881C, symSize: 0x2C }
  - { offsetInCU: 0x189E4, offset: 0x189E4, size: 0x8, addend: 0x0, symName: __ZNSt3__128__exception_guard_exceptionsINS_29_AllocatorDestroyRangeReverseINS_9allocatorI8QuestionEEPS3_EEEC1B8ue170006ES6_, symObjAddr: 0x7570, symBinAddr: 0x100008848, symSize: 0x34 }
  - { offsetInCU: 0x18A1D, offset: 0x18A1D, size: 0x8, addend: 0x0, symName: __ZNSt3__128__exception_guard_exceptionsINS_29_AllocatorDestroyRangeReverseINS_9allocatorI8QuestionEEPS3_EEEC2B8ue170006ES6_, symObjAddr: 0x75A4, symBinAddr: 0x10000887C, symSize: 0x30 }
  - { offsetInCU: 0x18A56, offset: 0x18A56, size: 0x8, addend: 0x0, symName: __ZNSt3__129_AllocatorDestroyRangeReverseINS_9allocatorI8QuestionEEPS2_EC2B8ue170006ERS3_RS4_S7_, symObjAddr: 0x75D4, symBinAddr: 0x1000088AC, symSize: 0x38 }
  - { offsetInCU: 0x18AAD, offset: 0x18AAD, size: 0x8, addend: 0x0, symName: __ZN8QuestionC1ERKS_, symObjAddr: 0x7648, symBinAddr: 0x100008920, symSize: 0x34 }
  - { offsetInCU: 0x18AE2, offset: 0x18AE2, size: 0x8, addend: 0x0, symName: __ZN8QuestionC2ERKS_, symObjAddr: 0x767C, symBinAddr: 0x100008954, symSize: 0x70 }
  - { offsetInCU: 0x18B17, offset: 0x18B17, size: 0x8, addend: 0x0, symName: __ZNSt3__16vectorI14QuestionOptionNS_9allocatorIS1_EEEC1ERKS4_, symObjAddr: 0x76EC, symBinAddr: 0x1000089C4, symSize: 0x34 }
  - { offsetInCU: 0x18B52, offset: 0x18B52, size: 0x8, addend: 0x0, symName: __ZNSt3__16vectorI14QuestionOptionNS_9allocatorIS1_EEEC2ERKS4_, symObjAddr: 0x7720, symBinAddr: 0x1000089F8, symSize: 0x94 }
  - { offsetInCU: 0x18B8D, offset: 0x18B8D, size: 0x8, addend: 0x0, symName: __ZNSt3__116allocator_traitsINS_9allocatorI14QuestionOptionEEE37select_on_container_copy_constructionB8ue170006IS3_vvEES3_RKS3_, symObjAddr: 0x77B4, symBinAddr: 0x100008A8C, symSize: 0x10 }
  - { offsetInCU: 0x18BC2, offset: 0x18BC2, size: 0x8, addend: 0x0, symName: __ZNSt3__117__compressed_pairIP14QuestionOptionNS_9allocatorIS1_EEEC1B8ue170006IDnS4_EEOT_OT0_, symObjAddr: 0x77C4, symBinAddr: 0x100008A9C, symSize: 0x3C }
  - { offsetInCU: 0x18C1A, offset: 0x18C1A, size: 0x8, addend: 0x0, symName: __ZNSt3__16vectorI14QuestionOptionNS_9allocatorIS1_EEE16__init_with_sizeB8ue170006IPS1_S6_EEvT_T0_m, symObjAddr: 0x7800, symBinAddr: 0x100008AD8, symSize: 0xB8 }
  - { offsetInCU: 0x18C8E, offset: 0x18C8E, size: 0x8, addend: 0x0, symName: __ZNSt3__117__compressed_pairIP14QuestionOptionNS_9allocatorIS1_EEEC2B8ue170006IDnS4_EEOT_OT0_, symObjAddr: 0x78B8, symBinAddr: 0x100008B90, symSize: 0x44 }
  - { offsetInCU: 0x18CE6, offset: 0x18CE6, size: 0x8, addend: 0x0, symName: __ZNSt3__122__compressed_pair_elemINS_9allocatorI14QuestionOptionEELi1ELb1EEC2B8ue170006IS3_vEEOT_, symObjAddr: 0x78FC, symBinAddr: 0x100008BD4, symSize: 0x18 }
  - { offsetInCU: 0x18D28, offset: 0x18D28, size: 0x8, addend: 0x0, symName: __ZNSt3__16vectorI14QuestionOptionNS_9allocatorIS1_EEE18__construct_at_endIPS1_S6_EEvT_T0_m, symObjAddr: 0x7914, symBinAddr: 0x100008BEC, symSize: 0x8C }
  - { offsetInCU: 0x18DB8, offset: 0x18DB8, size: 0x8, addend: 0x0, symName: __ZNSt3__119__unwrap_range_implIP14QuestionOptionS2_E8__unwrapB8ue170006ES2_S2_, symObjAddr: 0x7B50, symBinAddr: 0x100008E28, symSize: 0x58 }
  - { offsetInCU: 0x18DEF, offset: 0x18DEF, size: 0x8, addend: 0x0, symName: __ZNSt3__14pairIP14QuestionOptionS2_EC1B8ue170006IS2_S2_LPv0EEEOT_OT0_, symObjAddr: 0x7BA8, symBinAddr: 0x100008E80, symSize: 0x3C }
  - { offsetInCU: 0x18E4D, offset: 0x18E4D, size: 0x8, addend: 0x0, symName: __ZNSt3__14pairIP14QuestionOptionS2_EC2B8ue170006IS2_S2_LPv0EEEOT_OT0_, symObjAddr: 0x7BE4, symBinAddr: 0x100008EBC, symSize: 0x34 }
  - { offsetInCU: 0x18EAB, offset: 0x18EAB, size: 0x8, addend: 0x0, symName: __ZNSt3__116allocator_traitsINS_9allocatorI14QuestionOptionEEE9constructB8ue170006IS2_JRS2_EvvEEvRS3_PT_DpOT0_, symObjAddr: 0x7C18, symBinAddr: 0x100008EF0, symSize: 0x30 }
  - { offsetInCU: 0x18EFF, offset: 0x18EFF, size: 0x8, addend: 0x0, symName: __ZNSt3__128__exception_guard_exceptionsINS_29_AllocatorDestroyRangeReverseINS_9allocatorI8QuestionEEPS3_EEED2B8ue170006Ev, symObjAddr: 0x7C84, symBinAddr: 0x100008F5C, symSize: 0x50 }
  - { offsetInCU: 0x18F29, offset: 0x18F29, size: 0x8, addend: 0x0, symName: __ZNKSt3__129_AllocatorDestroyRangeReverseINS_9allocatorI8QuestionEEPS2_EclB8ue170006Ev, symObjAddr: 0x7CD4, symBinAddr: 0x100008FAC, symSize: 0x68 }
  - { offsetInCU: 0x18F4F, offset: 0x18F4F, size: 0x8, addend: 0x0, symName: __ZNSt3__116reverse_iteratorIP8QuestionEC1B8ue170006ES2_, symObjAddr: 0x7DAC, symBinAddr: 0x100009084, symSize: 0x34 }
  - { offsetInCU: 0x18F87, offset: 0x18F87, size: 0x8, addend: 0x0, symName: __ZNSt3__116allocator_traitsINS_9allocatorI8QuestionEEE7destroyB8ue170006IS2_vvEEvRS3_PT_, symObjAddr: 0x7E28, symBinAddr: 0x100009100, symSize: 0x28 }
  - { offsetInCU: 0x18FC1, offset: 0x18FC1, size: 0x8, addend: 0x0, symName: __ZNSt3__116reverse_iteratorIP8QuestionEppB8ue170006Ev, symObjAddr: 0x7E74, symBinAddr: 0x10000914C, symSize: 0x20 }
  - { offsetInCU: 0x18FE7, offset: 0x18FE7, size: 0x8, addend: 0x0, symName: __ZNKSt3__116reverse_iteratorIP8QuestionE4baseB8ue170006Ev, symObjAddr: 0x7E94, symBinAddr: 0x10000916C, symSize: 0x18 }
  - { offsetInCU: 0x19012, offset: 0x19012, size: 0x8, addend: 0x0, symName: __ZNSt3__119__to_address_helperINS_16reverse_iteratorIP8QuestionEEvE6__callB8ue170006ERKS4_, symObjAddr: 0x7EF4, symBinAddr: 0x1000091CC, symSize: 0x38 }
  - { offsetInCU: 0x19035, offset: 0x19035, size: 0x8, addend: 0x0, symName: __ZNKSt3__116reverse_iteratorIP8QuestionEptB8ue170006Ev, symObjAddr: 0x7F2C, symBinAddr: 0x100009204, symSize: 0x2C }
  - { offsetInCU: 0x1905B, offset: 0x1905B, size: 0x8, addend: 0x0, symName: __ZNSt3__116reverse_iteratorIP8QuestionEC2B8ue170006ES2_, symObjAddr: 0x7FFC, symBinAddr: 0x1000092D4, symSize: 0x28 }
  - { offsetInCU: 0x19093, offset: 0x19093, size: 0x8, addend: 0x0, symName: __ZNSt3__118__unwrap_iter_implIP8QuestionLb1EE8__unwrapB8ue170006ES2_, symObjAddr: 0x8024, symBinAddr: 0x1000092FC, symSize: 0x24 }
  - { offsetInCU: 0x190B6, offset: 0x190B6, size: 0x8, addend: 0x0, symName: __ZNSt3__118__unwrap_iter_implIP8QuestionLb1EE8__rewrapB8ue170006ES2_S2_, symObjAddr: 0x8048, symBinAddr: 0x100009320, symSize: 0x58 }
  - { offsetInCU: 0x190E7, offset: 0x190E7, size: 0x8, addend: 0x0, symName: __ZNSt3__16vectorI8QuestionNS_9allocatorIS1_EEE21_ConstructTransactionD2B8ue170006Ev, symObjAddr: 0x80A0, symBinAddr: 0x100009378, symSize: 0x20 }
  - { offsetInCU: 0x19111, offset: 0x19111, size: 0x8, addend: 0x0, symName: __ZNSt3__128__exception_guard_exceptionsINS_6vectorI8QuestionNS_9allocatorIS2_EEE16__destroy_vectorEED2B8ue170006Ev, symObjAddr: 0x80C0, symBinAddr: 0x100009398, symSize: 0x50 }
  - { offsetInCU: 0x1913B, offset: 0x1913B, size: 0x8, addend: 0x0, symName: __ZNSt3__16vectorI8QuestionNS_9allocatorIS1_EEE16__destroy_vectorclB8ue170006Ev, symObjAddr: 0x8110, symBinAddr: 0x1000093E8, symSize: 0x90 }
  - { offsetInCU: 0x19161, offset: 0x19161, size: 0x8, addend: 0x0, symName: __ZNSt3__16vectorI8QuestionNS_9allocatorIS1_EEE7__clearB8ue170006Ev, symObjAddr: 0x81A0, symBinAddr: 0x100009478, symSize: 0x28 }
  - { offsetInCU: 0x19187, offset: 0x19187, size: 0x8, addend: 0x0, symName: __ZNKSt3__16vectorI8QuestionNS_9allocatorIS1_EEE17__annotate_deleteB8ue170006Ev, symObjAddr: 0x81C8, symBinAddr: 0x1000094A0, symSize: 0xD4 }
  - { offsetInCU: 0x191AD, offset: 0x191AD, size: 0x8, addend: 0x0, symName: __ZNSt3__116allocator_traitsINS_9allocatorI8QuestionEEE10deallocateB8ue170006ERS3_PS2_m, symObjAddr: 0x829C, symBinAddr: 0x100009574, symSize: 0x34 }
  - { offsetInCU: 0x191EF, offset: 0x191EF, size: 0x8, addend: 0x0, symName: __ZNSt3__16vectorI8QuestionNS_9allocatorIS1_EEE22__base_destruct_at_endB8ue170006EPS1_, symObjAddr: 0x82D0, symBinAddr: 0x1000095A8, symSize: 0x8C }
  - { offsetInCU: 0x19233, offset: 0x19233, size: 0x8, addend: 0x0, symName: __ZNKSt3__16vectorI8QuestionNS_9allocatorIS1_EEE4sizeB8ue170006Ev, symObjAddr: 0x835C, symBinAddr: 0x100009634, symSize: 0x28 }
  - { offsetInCU: 0x19259, offset: 0x19259, size: 0x8, addend: 0x0, symName: __ZNSt3__19allocatorI8QuestionE10deallocateB8ue170006EPS1_m, symObjAddr: 0x8384, symBinAddr: 0x10000965C, symSize: 0x44 }
  - { offsetInCU: 0x1929B, offset: 0x1929B, size: 0x8, addend: 0x0, symName: __ZN8QuestionD2Ev, symObjAddr: 0x83C8, symBinAddr: 0x1000096A0, symSize: 0x38 }
  - { offsetInCU: 0x192C7, offset: 0x192C7, size: 0x8, addend: 0x0, symName: __ZNSt3__16vectorI14QuestionOptionNS_9allocatorIS1_EEED1B8ue170006Ev, symObjAddr: 0x8400, symBinAddr: 0x1000096D8, symSize: 0x2C }
  - { offsetInCU: 0x192F1, offset: 0x192F1, size: 0x8, addend: 0x0, symName: __ZNSt3__16vectorI14QuestionOptionNS_9allocatorIS1_EEED2B8ue170006Ev, symObjAddr: 0x842C, symBinAddr: 0x100009704, symSize: 0x40 }
  - { offsetInCU: 0x1931B, offset: 0x1931B, size: 0x8, addend: 0x0, symName: __ZNSt3__16vectorI8QuestionNS_9allocatorIS1_EEE11__make_iterB8ue170006EPS1_, symObjAddr: 0x846C, symBinAddr: 0x100009744, symSize: 0x30 }
  - { offsetInCU: 0x19350, offset: 0x19350, size: 0x8, addend: 0x0, symName: __ZNSt3__111__wrap_iterIP8QuestionEC1B8ue170006ES2_, symObjAddr: 0x849C, symBinAddr: 0x100009774, symSize: 0x34 }
  - { offsetInCU: 0x19388, offset: 0x19388, size: 0x8, addend: 0x0, symName: __ZNSt3__111__wrap_iterIP8QuestionEC2B8ue170006ES2_, symObjAddr: 0x84D0, symBinAddr: 0x1000097A8, symSize: 0x20 }
  - { offsetInCU: 0x193C0, offset: 0x193C0, size: 0x8, addend: 0x0, symName: __ZNKSt3__111__wrap_iterIP8QuestionE4baseB8ue170006Ev, symObjAddr: 0x8538, symBinAddr: 0x100009810, symSize: 0x18 }
  - { offsetInCU: 0x193E6, offset: 0x193E6, size: 0x8, addend: 0x0, symName: __ZNSt3__16vectorI8QuestionNS_9allocatorIS1_EEED2B8ue170006Ev, symObjAddr: 0x8550, symBinAddr: 0x100009828, symSize: 0x40 }
  - { offsetInCU: 0x19410, offset: 0x19410, size: 0x8, addend: 0x0, symName: __ZN6ChoiceD2Ev, symObjAddr: 0x8590, symBinAddr: 0x100009868, symSize: 0x2C }
  - { offsetInCU: 0x1943C, offset: 0x1943C, size: 0x8, addend: 0x0, symName: __ZNSt3__16vectorI6ChoiceNS_9allocatorIS1_EEEC2B8ue170006ESt16initializer_listIS1_E, symObjAddr: 0x85BC, symBinAddr: 0x100009894, symSize: 0x120 }
  - { offsetInCU: 0x1948C, offset: 0x1948C, size: 0x8, addend: 0x0, symName: __ZNSt3__117__compressed_pairIP6ChoiceNS_9allocatorIS1_EEEC1B8ue170006IDnNS_18__default_init_tagEEEOT_OT0_, symObjAddr: 0x86DC, symBinAddr: 0x1000099B4, symSize: 0x3C }
  - { offsetInCU: 0x194E4, offset: 0x194E4, size: 0x8, addend: 0x0, symName: __ZNSt3__16vectorI6ChoiceNS_9allocatorIS1_EEE16__destroy_vectorC1B8ue170006ERS4_, symObjAddr: 0x8758, symBinAddr: 0x100009A30, symSize: 0x34 }
  - { offsetInCU: 0x1951D, offset: 0x1951D, size: 0x8, addend: 0x0, symName: __ZNKSt16initializer_listI6ChoiceE4sizeB8ue170006Ev, symObjAddr: 0x878C, symBinAddr: 0x100009A64, symSize: 0x18 }
  - { offsetInCU: 0x19543, offset: 0x19543, size: 0x8, addend: 0x0, symName: __ZNSt3__16vectorI6ChoiceNS_9allocatorIS1_EEE11__vallocateB8ue170006Em, symObjAddr: 0x87A4, symBinAddr: 0x100009A7C, symSize: 0xAC }
  - { offsetInCU: 0x19587, offset: 0x19587, size: 0x8, addend: 0x0, symName: __ZNSt3__16vectorI6ChoiceNS_9allocatorIS1_EEE18__construct_at_endIPKS1_S7_EEvT_T0_m, symObjAddr: 0x8850, symBinAddr: 0x100009B28, symSize: 0x8C }
  - { offsetInCU: 0x195FD, offset: 0x195FD, size: 0x8, addend: 0x0, symName: __ZNKSt16initializer_listI6ChoiceE5beginB8ue170006Ev, symObjAddr: 0x88DC, symBinAddr: 0x100009BB4, symSize: 0x18 }
  - { offsetInCU: 0x19623, offset: 0x19623, size: 0x8, addend: 0x0, symName: __ZNKSt16initializer_listI6ChoiceE3endB8ue170006Ev, symObjAddr: 0x88F4, symBinAddr: 0x100009BCC, symSize: 0x20 }
  - { offsetInCU: 0x19649, offset: 0x19649, size: 0x8, addend: 0x0, symName: __ZNSt3__128__exception_guard_exceptionsINS_6vectorI6ChoiceNS_9allocatorIS2_EEE16__destroy_vectorEE10__completeB8ue170006Ev, symObjAddr: 0x8914, symBinAddr: 0x100009BEC, symSize: 0x1C }
  - { offsetInCU: 0x1966F, offset: 0x1966F, size: 0x8, addend: 0x0, symName: __ZNSt3__128__exception_guard_exceptionsINS_6vectorI6ChoiceNS_9allocatorIS2_EEE16__destroy_vectorEED1B8ue170006Ev, symObjAddr: 0x8930, symBinAddr: 0x100009C08, symSize: 0x2C }
  - { offsetInCU: 0x19699, offset: 0x19699, size: 0x8, addend: 0x0, symName: __ZNSt3__117__compressed_pairIP6ChoiceNS_9allocatorIS1_EEEC2B8ue170006IDnNS_18__default_init_tagEEEOT_OT0_, symObjAddr: 0x895C, symBinAddr: 0x100009C34, symSize: 0x40 }
  - { offsetInCU: 0x196F1, offset: 0x196F1, size: 0x8, addend: 0x0, symName: __ZNSt3__122__compressed_pair_elemIP6ChoiceLi0ELb0EEC2B8ue170006IDnvEEOT_, symObjAddr: 0x899C, symBinAddr: 0x100009C74, symSize: 0x1C }
  - { offsetInCU: 0x19733, offset: 0x19733, size: 0x8, addend: 0x0, symName: __ZNSt3__122__compressed_pair_elemINS_9allocatorI6ChoiceEELi1ELb1EEC2B8ue170006ENS_18__default_init_tagE, symObjAddr: 0x89B8, symBinAddr: 0x100009C90, symSize: 0x2C }
  - { offsetInCU: 0x19767, offset: 0x19767, size: 0x8, addend: 0x0, symName: __ZNSt3__19allocatorI6ChoiceEC2B8ue170006Ev, symObjAddr: 0x89E4, symBinAddr: 0x100009CBC, symSize: 0x2C }
  - { offsetInCU: 0x19791, offset: 0x19791, size: 0x8, addend: 0x0, symName: __ZNSt3__116__non_trivial_ifILb1ENS_9allocatorI6ChoiceEEEC2B8ue170006Ev, symObjAddr: 0x8A10, symBinAddr: 0x100009CE8, symSize: 0x14 }
  - { offsetInCU: 0x197BB, offset: 0x197BB, size: 0x8, addend: 0x0, symName: __ZNSt3__128__exception_guard_exceptionsINS_6vectorI6ChoiceNS_9allocatorIS2_EEE16__destroy_vectorEEC1B8ue170006ES6_, symObjAddr: 0x8A24, symBinAddr: 0x100009CFC, symSize: 0x34 }
  - { offsetInCU: 0x197F3, offset: 0x197F3, size: 0x8, addend: 0x0, symName: __ZNSt3__128__exception_guard_exceptionsINS_6vectorI6ChoiceNS_9allocatorIS2_EEE16__destroy_vectorEEC2B8ue170006ES6_, symObjAddr: 0x8A58, symBinAddr: 0x100009D30, symSize: 0x24 }
  - { offsetInCU: 0x1982B, offset: 0x1982B, size: 0x8, addend: 0x0, symName: __ZNSt3__16vectorI6ChoiceNS_9allocatorIS1_EEE16__destroy_vectorC2B8ue170006ERS4_, symObjAddr: 0x8A7C, symBinAddr: 0x100009D54, symSize: 0x20 }
  - { offsetInCU: 0x19864, offset: 0x19864, size: 0x8, addend: 0x0, symName: __ZNKSt3__16vectorI6ChoiceNS_9allocatorIS1_EEE8max_sizeEv, symObjAddr: 0x8A9C, symBinAddr: 0x100009D74, symSize: 0x60 }
  - { offsetInCU: 0x1988C, offset: 0x1988C, size: 0x8, addend: 0x0, symName: __ZNKSt3__16vectorI6ChoiceNS_9allocatorIS1_EEE20__throw_length_errorB8ue170006Ev, symObjAddr: 0x8AFC, symBinAddr: 0x100009DD4, symSize: 0x1C }
  - { offsetInCU: 0x198B2, offset: 0x198B2, size: 0x8, addend: 0x0, symName: __ZNSt3__16vectorI6ChoiceNS_9allocatorIS1_EEE7__allocB8ue170006Ev, symObjAddr: 0x8B58, symBinAddr: 0x100009E30, symSize: 0x28 }
  - { offsetInCU: 0x198D8, offset: 0x198D8, size: 0x8, addend: 0x0, symName: __ZNSt3__16vectorI6ChoiceNS_9allocatorIS1_EEE9__end_capB8ue170006Ev, symObjAddr: 0x8B80, symBinAddr: 0x100009E58, symSize: 0x28 }
  - { offsetInCU: 0x198FE, offset: 0x198FE, size: 0x8, addend: 0x0, symName: __ZNKSt3__16vectorI6ChoiceNS_9allocatorIS1_EEE14__annotate_newB8ue170006Em, symObjAddr: 0x8BA8, symBinAddr: 0x100009E80, symSize: 0xAC }
  - { offsetInCU: 0x1993D, offset: 0x1993D, size: 0x8, addend: 0x0, symName: __ZNSt3__116allocator_traitsINS_9allocatorI6ChoiceEEE8max_sizeB8ue170006IS3_vvEEmRKS3_, symObjAddr: 0x8C54, symBinAddr: 0x100009F2C, symSize: 0x28 }
  - { offsetInCU: 0x19968, offset: 0x19968, size: 0x8, addend: 0x0, symName: __ZNKSt3__16vectorI6ChoiceNS_9allocatorIS1_EEE7__allocB8ue170006Ev, symObjAddr: 0x8C7C, symBinAddr: 0x100009F54, symSize: 0x28 }
  - { offsetInCU: 0x1998E, offset: 0x1998E, size: 0x8, addend: 0x0, symName: __ZNKSt3__117__compressed_pairIP6ChoiceNS_9allocatorIS1_EEE6secondB8ue170006Ev, symObjAddr: 0x8CA4, symBinAddr: 0x100009F7C, symSize: 0x24 }
  - { offsetInCU: 0x199B4, offset: 0x199B4, size: 0x8, addend: 0x0, symName: __ZNKSt3__122__compressed_pair_elemINS_9allocatorI6ChoiceEELi1ELb1EE5__getB8ue170006Ev, symObjAddr: 0x8CC8, symBinAddr: 0x100009FA0, symSize: 0x14 }
  - { offsetInCU: 0x199DA, offset: 0x199DA, size: 0x8, addend: 0x0, symName: __ZNSt3__19allocatorI6ChoiceE8allocateB8ue170006Em, symObjAddr: 0x8CDC, symBinAddr: 0x100009FB4, symSize: 0x58 }
  - { offsetInCU: 0x19A0E, offset: 0x19A0E, size: 0x8, addend: 0x0, symName: __ZNSt3__117__compressed_pairIP6ChoiceNS_9allocatorIS1_EEE6secondB8ue170006Ev, symObjAddr: 0x8D34, symBinAddr: 0x10000A00C, symSize: 0x24 }
  - { offsetInCU: 0x19A34, offset: 0x19A34, size: 0x8, addend: 0x0, symName: __ZNSt3__122__compressed_pair_elemINS_9allocatorI6ChoiceEELi1ELb1EE5__getB8ue170006Ev, symObjAddr: 0x8D58, symBinAddr: 0x10000A030, symSize: 0x14 }
  - { offsetInCU: 0x19A5A, offset: 0x19A5A, size: 0x8, addend: 0x0, symName: __ZNSt3__117__compressed_pairIP6ChoiceNS_9allocatorIS1_EEE5firstB8ue170006Ev, symObjAddr: 0x8D6C, symBinAddr: 0x10000A044, symSize: 0x24 }
  - { offsetInCU: 0x19A80, offset: 0x19A80, size: 0x8, addend: 0x0, symName: __ZNSt3__122__compressed_pair_elemIP6ChoiceLi0ELb0EE5__getB8ue170006Ev, symObjAddr: 0x8D90, symBinAddr: 0x10000A068, symSize: 0x14 }
  - { offsetInCU: 0x19AA6, offset: 0x19AA6, size: 0x8, addend: 0x0, symName: __ZNKSt3__16vectorI6ChoiceNS_9allocatorIS1_EEE31__annotate_contiguous_containerB8ue170006EPKvS6_S6_S6_, symObjAddr: 0x8DA4, symBinAddr: 0x10000A07C, symSize: 0x20 }
  - { offsetInCU: 0x19AF8, offset: 0x19AF8, size: 0x8, addend: 0x0, symName: __ZNKSt3__16vectorI6ChoiceNS_9allocatorIS1_EEE4dataB8ue170006Ev, symObjAddr: 0x8DC4, symBinAddr: 0x10000A09C, symSize: 0x28 }
  - { offsetInCU: 0x19B1E, offset: 0x19B1E, size: 0x8, addend: 0x0, symName: __ZNKSt3__16vectorI6ChoiceNS_9allocatorIS1_EEE8capacityB8ue170006Ev, symObjAddr: 0x8DEC, symBinAddr: 0x10000A0C4, symSize: 0x40 }
  - { offsetInCU: 0x19B44, offset: 0x19B44, size: 0x8, addend: 0x0, symName: __ZNKSt3__16vectorI6ChoiceNS_9allocatorIS1_EEE9__end_capB8ue170006Ev, symObjAddr: 0x8E40, symBinAddr: 0x10000A118, symSize: 0x28 }
  - { offsetInCU: 0x19B6A, offset: 0x19B6A, size: 0x8, addend: 0x0, symName: __ZNKSt3__117__compressed_pairIP6ChoiceNS_9allocatorIS1_EEE5firstB8ue170006Ev, symObjAddr: 0x8E68, symBinAddr: 0x10000A140, symSize: 0x24 }
  - { offsetInCU: 0x19B90, offset: 0x19B90, size: 0x8, addend: 0x0, symName: __ZNKSt3__122__compressed_pair_elemIP6ChoiceLi0ELb0EE5__getB8ue170006Ev, symObjAddr: 0x8E8C, symBinAddr: 0x10000A164, symSize: 0x14 }
  - { offsetInCU: 0x19BCF, offset: 0x19BCF, size: 0x8, addend: 0x0, symName: __ZNSt3__16vectorI6ChoiceNS_9allocatorIS1_EEE21_ConstructTransactionC1B8ue170006ERS4_m, symObjAddr: 0x8EA0, symBinAddr: 0x10000A178, symSize: 0x3C }
  - { offsetInCU: 0x19C17, offset: 0x19C17, size: 0x8, addend: 0x0, symName: __ZNSt3__16vectorI6ChoiceNS_9allocatorIS1_EEE21_ConstructTransactionD1B8ue170006Ev, symObjAddr: 0x8F5C, symBinAddr: 0x10000A234, symSize: 0x2C }
  - { offsetInCU: 0x19C41, offset: 0x19C41, size: 0x8, addend: 0x0, symName: __ZNSt3__16vectorI6ChoiceNS_9allocatorIS1_EEE21_ConstructTransactionC2B8ue170006ERS4_m, symObjAddr: 0x8F88, symBinAddr: 0x10000A260, symSize: 0x44 }
  - { offsetInCU: 0x19CA3, offset: 0x19CA3, size: 0x8, addend: 0x0, symName: __ZNSt3__119__unwrap_range_implIPK6ChoiceS3_E8__unwrapB8ue170006ES3_S3_, symObjAddr: 0x915C, symBinAddr: 0x10000A434, symSize: 0x58 }
  - { offsetInCU: 0x19CDA, offset: 0x19CDA, size: 0x8, addend: 0x0, symName: __ZNSt3__14pairIPK6ChoiceS3_EC1B8ue170006IS3_S3_LPv0EEEOT_OT0_, symObjAddr: 0x91D8, symBinAddr: 0x10000A4B0, symSize: 0x3C }
  - { offsetInCU: 0x19D38, offset: 0x19D38, size: 0x8, addend: 0x0, symName: __ZNSt3__118__unwrap_iter_implIPK6ChoiceLb1EE8__unwrapB8ue170006ES3_, symObjAddr: 0x9214, symBinAddr: 0x10000A4EC, symSize: 0x24 }
  - { offsetInCU: 0x19D5B, offset: 0x19D5B, size: 0x8, addend: 0x0, symName: __ZNSt3__14pairIPK6ChoiceS3_EC2B8ue170006IS3_S3_LPv0EEEOT_OT0_, symObjAddr: 0x924C, symBinAddr: 0x10000A524, symSize: 0x34 }
  - { offsetInCU: 0x19DB9, offset: 0x19DB9, size: 0x8, addend: 0x0, symName: __ZNSt3__129_AllocatorDestroyRangeReverseINS_9allocatorI6ChoiceEEPS2_EC1B8ue170006ERS3_RS4_S7_, symObjAddr: 0x92CC, symBinAddr: 0x10000A5A4, symSize: 0x44 }
  - { offsetInCU: 0x19E10, offset: 0x19E10, size: 0x8, addend: 0x0, symName: __ZNSt3__116allocator_traitsINS_9allocatorI6ChoiceEEE9constructB8ue170006IS2_JRKS2_EvvEEvRS3_PT_DpOT0_, symObjAddr: 0x9310, symBinAddr: 0x10000A5E8, symSize: 0x30 }
  - { offsetInCU: 0x19E64, offset: 0x19E64, size: 0x8, addend: 0x0, symName: __ZNSt3__128__exception_guard_exceptionsINS_29_AllocatorDestroyRangeReverseINS_9allocatorI6ChoiceEEPS3_EEE10__completeB8ue170006Ev, symObjAddr: 0x9340, symBinAddr: 0x10000A618, symSize: 0x1C }
  - { offsetInCU: 0x19E8A, offset: 0x19E8A, size: 0x8, addend: 0x0, symName: __ZNSt3__128__exception_guard_exceptionsINS_29_AllocatorDestroyRangeReverseINS_9allocatorI6ChoiceEEPS3_EEED1B8ue170006Ev, symObjAddr: 0x935C, symBinAddr: 0x10000A634, symSize: 0x2C }
  - { offsetInCU: 0x19EB4, offset: 0x19EB4, size: 0x8, addend: 0x0, symName: __ZNSt3__128__exception_guard_exceptionsINS_29_AllocatorDestroyRangeReverseINS_9allocatorI6ChoiceEEPS3_EEEC1B8ue170006ES6_, symObjAddr: 0x9388, symBinAddr: 0x10000A660, symSize: 0x34 }
  - { offsetInCU: 0x19EED, offset: 0x19EED, size: 0x8, addend: 0x0, symName: __ZNSt3__128__exception_guard_exceptionsINS_29_AllocatorDestroyRangeReverseINS_9allocatorI6ChoiceEEPS3_EEEC2B8ue170006ES6_, symObjAddr: 0x93BC, symBinAddr: 0x10000A694, symSize: 0x30 }
  - { offsetInCU: 0x19F26, offset: 0x19F26, size: 0x8, addend: 0x0, symName: __ZNSt3__129_AllocatorDestroyRangeReverseINS_9allocatorI6ChoiceEEPS2_EC2B8ue170006ERS3_RS4_S7_, symObjAddr: 0x93EC, symBinAddr: 0x10000A6C4, symSize: 0x38 }
  - { offsetInCU: 0x19F7D, offset: 0x19F7D, size: 0x8, addend: 0x0, symName: __ZN6ChoiceC1ERKS_, symObjAddr: 0x9460, symBinAddr: 0x10000A738, symSize: 0x34 }
  - { offsetInCU: 0x19FB2, offset: 0x19FB2, size: 0x8, addend: 0x0, symName: __ZN6ChoiceC2ERKS_, symObjAddr: 0x9494, symBinAddr: 0x10000A76C, symSize: 0x40 }
  - { offsetInCU: 0x19FE7, offset: 0x19FE7, size: 0x8, addend: 0x0, symName: __ZNSt3__128__exception_guard_exceptionsINS_29_AllocatorDestroyRangeReverseINS_9allocatorI6ChoiceEEPS3_EEED2B8ue170006Ev, symObjAddr: 0x94D4, symBinAddr: 0x10000A7AC, symSize: 0x50 }
  - { offsetInCU: 0x1A011, offset: 0x1A011, size: 0x8, addend: 0x0, symName: __ZNKSt3__129_AllocatorDestroyRangeReverseINS_9allocatorI6ChoiceEEPS2_EclB8ue170006Ev, symObjAddr: 0x9524, symBinAddr: 0x10000A7FC, symSize: 0x68 }
  - { offsetInCU: 0x1A037, offset: 0x1A037, size: 0x8, addend: 0x0, symName: __ZNSt3__116reverse_iteratorIP6ChoiceEC1B8ue170006ES2_, symObjAddr: 0x95FC, symBinAddr: 0x10000A8D4, symSize: 0x34 }
  - { offsetInCU: 0x1A06F, offset: 0x1A06F, size: 0x8, addend: 0x0, symName: __ZNSt3__116allocator_traitsINS_9allocatorI6ChoiceEEE7destroyB8ue170006IS2_vvEEvRS3_PT_, symObjAddr: 0x9678, symBinAddr: 0x10000A950, symSize: 0x28 }
  - { offsetInCU: 0x1A0A9, offset: 0x1A0A9, size: 0x8, addend: 0x0, symName: __ZNSt3__116reverse_iteratorIP6ChoiceEppB8ue170006Ev, symObjAddr: 0x96C4, symBinAddr: 0x10000A99C, symSize: 0x20 }
  - { offsetInCU: 0x1A0CF, offset: 0x1A0CF, size: 0x8, addend: 0x0, symName: __ZNKSt3__116reverse_iteratorIP6ChoiceE4baseB8ue170006Ev, symObjAddr: 0x96E4, symBinAddr: 0x10000A9BC, symSize: 0x18 }
  - { offsetInCU: 0x1A0FA, offset: 0x1A0FA, size: 0x8, addend: 0x0, symName: __ZNSt3__119__to_address_helperINS_16reverse_iteratorIP6ChoiceEEvE6__callB8ue170006ERKS4_, symObjAddr: 0x9744, symBinAddr: 0x10000AA1C, symSize: 0x38 }
  - { offsetInCU: 0x1A11D, offset: 0x1A11D, size: 0x8, addend: 0x0, symName: __ZNKSt3__116reverse_iteratorIP6ChoiceEptB8ue170006Ev, symObjAddr: 0x977C, symBinAddr: 0x10000AA54, symSize: 0x2C }
  - { offsetInCU: 0x1A143, offset: 0x1A143, size: 0x8, addend: 0x0, symName: __ZNSt3__116reverse_iteratorIP6ChoiceEC2B8ue170006ES2_, symObjAddr: 0x9844, symBinAddr: 0x10000AB1C, symSize: 0x28 }
  - { offsetInCU: 0x1A17B, offset: 0x1A17B, size: 0x8, addend: 0x0, symName: __ZNSt3__118__unwrap_iter_implIP6ChoiceLb1EE8__unwrapB8ue170006ES2_, symObjAddr: 0x986C, symBinAddr: 0x10000AB44, symSize: 0x24 }
  - { offsetInCU: 0x1A19E, offset: 0x1A19E, size: 0x8, addend: 0x0, symName: __ZNSt3__118__unwrap_iter_implIP6ChoiceLb1EE8__rewrapB8ue170006ES2_S2_, symObjAddr: 0x9890, symBinAddr: 0x10000AB68, symSize: 0x50 }
  - { offsetInCU: 0x1A1CF, offset: 0x1A1CF, size: 0x8, addend: 0x0, symName: __ZNSt3__16vectorI6ChoiceNS_9allocatorIS1_EEE21_ConstructTransactionD2B8ue170006Ev, symObjAddr: 0x98E0, symBinAddr: 0x10000ABB8, symSize: 0x20 }
  - { offsetInCU: 0x1A1F9, offset: 0x1A1F9, size: 0x8, addend: 0x0, symName: __ZNSt3__128__exception_guard_exceptionsINS_6vectorI6ChoiceNS_9allocatorIS2_EEE16__destroy_vectorEED2B8ue170006Ev, symObjAddr: 0x9900, symBinAddr: 0x10000ABD8, symSize: 0x50 }
  - { offsetInCU: 0x1A223, offset: 0x1A223, size: 0x8, addend: 0x0, symName: __ZNSt3__16vectorI6ChoiceNS_9allocatorIS1_EEE16__destroy_vectorclB8ue170006Ev, symObjAddr: 0x9950, symBinAddr: 0x10000AC28, symSize: 0x90 }
  - { offsetInCU: 0x1A249, offset: 0x1A249, size: 0x8, addend: 0x0, symName: __ZNSt3__16vectorI6ChoiceNS_9allocatorIS1_EEE7__clearB8ue170006Ev, symObjAddr: 0x99E0, symBinAddr: 0x10000ACB8, symSize: 0x28 }
  - { offsetInCU: 0x1A26F, offset: 0x1A26F, size: 0x8, addend: 0x0, symName: __ZNKSt3__16vectorI6ChoiceNS_9allocatorIS1_EEE17__annotate_deleteB8ue170006Ev, symObjAddr: 0x9A08, symBinAddr: 0x10000ACE0, symSize: 0xB8 }
  - { offsetInCU: 0x1A295, offset: 0x1A295, size: 0x8, addend: 0x0, symName: __ZNSt3__116allocator_traitsINS_9allocatorI6ChoiceEEE10deallocateB8ue170006ERS3_PS2_m, symObjAddr: 0x9AC0, symBinAddr: 0x10000AD98, symSize: 0x34 }
  - { offsetInCU: 0x1A2D7, offset: 0x1A2D7, size: 0x8, addend: 0x0, symName: __ZNSt3__16vectorI6ChoiceNS_9allocatorIS1_EEE22__base_destruct_at_endB8ue170006EPS1_, symObjAddr: 0x9AF4, symBinAddr: 0x10000ADCC, symSize: 0x8C }
  - { offsetInCU: 0x1A31B, offset: 0x1A31B, size: 0x8, addend: 0x0, symName: __ZNKSt3__16vectorI6ChoiceNS_9allocatorIS1_EEE4sizeB8ue170006Ev, symObjAddr: 0x9B80, symBinAddr: 0x10000AE58, symSize: 0x28 }
  - { offsetInCU: 0x1A341, offset: 0x1A341, size: 0x8, addend: 0x0, symName: __ZNSt3__19allocatorI6ChoiceE10deallocateB8ue170006EPS1_m, symObjAddr: 0x9BA8, symBinAddr: 0x10000AE80, symSize: 0x40 }
  - { offsetInCU: 0x1A383, offset: 0x1A383, size: 0x8, addend: 0x0, symName: __ZNSt3__16vectorI10ChoiceMenuNS_9allocatorIS1_EEEC2B8ue170006ESt16initializer_listIS1_E, symObjAddr: 0x9BE8, symBinAddr: 0x10000AEC0, symSize: 0x120 }
  - { offsetInCU: 0x1A3D3, offset: 0x1A3D3, size: 0x8, addend: 0x0, symName: __ZNSt3__117__compressed_pairIP10ChoiceMenuNS_9allocatorIS1_EEEC1B8ue170006IDnNS_18__default_init_tagEEEOT_OT0_, symObjAddr: 0x9D08, symBinAddr: 0x10000AFE0, symSize: 0x3C }
  - { offsetInCU: 0x1A42B, offset: 0x1A42B, size: 0x8, addend: 0x0, symName: __ZNSt3__16vectorI10ChoiceMenuNS_9allocatorIS1_EEE16__destroy_vectorC1B8ue170006ERS4_, symObjAddr: 0x9D84, symBinAddr: 0x10000B05C, symSize: 0x34 }
  - { offsetInCU: 0x1A464, offset: 0x1A464, size: 0x8, addend: 0x0, symName: __ZNKSt16initializer_listI10ChoiceMenuE4sizeB8ue170006Ev, symObjAddr: 0x9DB8, symBinAddr: 0x10000B090, symSize: 0x18 }
  - { offsetInCU: 0x1A48A, offset: 0x1A48A, size: 0x8, addend: 0x0, symName: __ZNSt3__16vectorI10ChoiceMenuNS_9allocatorIS1_EEE11__vallocateB8ue170006Em, symObjAddr: 0x9DD0, symBinAddr: 0x10000B0A8, symSize: 0xB4 }
  - { offsetInCU: 0x1A4CE, offset: 0x1A4CE, size: 0x8, addend: 0x0, symName: __ZNSt3__16vectorI10ChoiceMenuNS_9allocatorIS1_EEE18__construct_at_endIPKS1_S7_EEvT_T0_m, symObjAddr: 0x9E84, symBinAddr: 0x10000B15C, symSize: 0x8C }
  - { offsetInCU: 0x1A544, offset: 0x1A544, size: 0x8, addend: 0x0, symName: __ZNKSt16initializer_listI10ChoiceMenuE5beginB8ue170006Ev, symObjAddr: 0x9F10, symBinAddr: 0x10000B1E8, symSize: 0x18 }
  - { offsetInCU: 0x1A56A, offset: 0x1A56A, size: 0x8, addend: 0x0, symName: __ZNKSt16initializer_listI10ChoiceMenuE3endB8ue170006Ev, symObjAddr: 0x9F28, symBinAddr: 0x10000B200, symSize: 0x28 }
  - { offsetInCU: 0x1A590, offset: 0x1A590, size: 0x8, addend: 0x0, symName: __ZNSt3__128__exception_guard_exceptionsINS_6vectorI10ChoiceMenuNS_9allocatorIS2_EEE16__destroy_vectorEE10__completeB8ue170006Ev, symObjAddr: 0x9F50, symBinAddr: 0x10000B228, symSize: 0x1C }
  - { offsetInCU: 0x1A5B6, offset: 0x1A5B6, size: 0x8, addend: 0x0, symName: __ZNSt3__128__exception_guard_exceptionsINS_6vectorI10ChoiceMenuNS_9allocatorIS2_EEE16__destroy_vectorEED1B8ue170006Ev, symObjAddr: 0x9F6C, symBinAddr: 0x10000B244, symSize: 0x2C }
  - { offsetInCU: 0x1A5E0, offset: 0x1A5E0, size: 0x8, addend: 0x0, symName: __ZNSt3__117__compressed_pairIP10ChoiceMenuNS_9allocatorIS1_EEEC2B8ue170006IDnNS_18__default_init_tagEEEOT_OT0_, symObjAddr: 0x9F98, symBinAddr: 0x10000B270, symSize: 0x40 }
  - { offsetInCU: 0x1A638, offset: 0x1A638, size: 0x8, addend: 0x0, symName: __ZNSt3__122__compressed_pair_elemIP10ChoiceMenuLi0ELb0EEC2B8ue170006IDnvEEOT_, symObjAddr: 0x9FD8, symBinAddr: 0x10000B2B0, symSize: 0x1C }
  - { offsetInCU: 0x1A67A, offset: 0x1A67A, size: 0x8, addend: 0x0, symName: __ZNSt3__122__compressed_pair_elemINS_9allocatorI10ChoiceMenuEELi1ELb1EEC2B8ue170006ENS_18__default_init_tagE, symObjAddr: 0x9FF4, symBinAddr: 0x10000B2CC, symSize: 0x2C }
  - { offsetInCU: 0x1A6AE, offset: 0x1A6AE, size: 0x8, addend: 0x0, symName: __ZNSt3__19allocatorI10ChoiceMenuEC2B8ue170006Ev, symObjAddr: 0xA020, symBinAddr: 0x10000B2F8, symSize: 0x2C }
  - { offsetInCU: 0x1A6D8, offset: 0x1A6D8, size: 0x8, addend: 0x0, symName: __ZNSt3__116__non_trivial_ifILb1ENS_9allocatorI10ChoiceMenuEEEC2B8ue170006Ev, symObjAddr: 0xA04C, symBinAddr: 0x10000B324, symSize: 0x14 }
  - { offsetInCU: 0x1A702, offset: 0x1A702, size: 0x8, addend: 0x0, symName: __ZNSt3__128__exception_guard_exceptionsINS_6vectorI10ChoiceMenuNS_9allocatorIS2_EEE16__destroy_vectorEEC1B8ue170006ES6_, symObjAddr: 0xA060, symBinAddr: 0x10000B338, symSize: 0x34 }
  - { offsetInCU: 0x1A73A, offset: 0x1A73A, size: 0x8, addend: 0x0, symName: __ZNSt3__128__exception_guard_exceptionsINS_6vectorI10ChoiceMenuNS_9allocatorIS2_EEE16__destroy_vectorEEC2B8ue170006ES6_, symObjAddr: 0xA094, symBinAddr: 0x10000B36C, symSize: 0x24 }
  - { offsetInCU: 0x1A772, offset: 0x1A772, size: 0x8, addend: 0x0, symName: __ZNSt3__16vectorI10ChoiceMenuNS_9allocatorIS1_EEE16__destroy_vectorC2B8ue170006ERS4_, symObjAddr: 0xA0B8, symBinAddr: 0x10000B390, symSize: 0x20 }
  - { offsetInCU: 0x1A7AB, offset: 0x1A7AB, size: 0x8, addend: 0x0, symName: __ZNKSt3__16vectorI10ChoiceMenuNS_9allocatorIS1_EEE8max_sizeEv, symObjAddr: 0xA0D8, symBinAddr: 0x10000B3B0, symSize: 0x60 }
  - { offsetInCU: 0x1A7D3, offset: 0x1A7D3, size: 0x8, addend: 0x0, symName: __ZNKSt3__16vectorI10ChoiceMenuNS_9allocatorIS1_EEE20__throw_length_errorB8ue170006Ev, symObjAddr: 0xA138, symBinAddr: 0x10000B410, symSize: 0x1C }
  - { offsetInCU: 0x1A7F9, offset: 0x1A7F9, size: 0x8, addend: 0x0, symName: __ZNSt3__16vectorI10ChoiceMenuNS_9allocatorIS1_EEE7__allocB8ue170006Ev, symObjAddr: 0xA194, symBinAddr: 0x10000B46C, symSize: 0x28 }
  - { offsetInCU: 0x1A81F, offset: 0x1A81F, size: 0x8, addend: 0x0, symName: __ZNSt3__16vectorI10ChoiceMenuNS_9allocatorIS1_EEE9__end_capB8ue170006Ev, symObjAddr: 0xA1BC, symBinAddr: 0x10000B494, symSize: 0x28 }
  - { offsetInCU: 0x1A845, offset: 0x1A845, size: 0x8, addend: 0x0, symName: __ZNKSt3__16vectorI10ChoiceMenuNS_9allocatorIS1_EEE14__annotate_newB8ue170006Em, symObjAddr: 0xA1E4, symBinAddr: 0x10000B4BC, symSize: 0xC8 }
  - { offsetInCU: 0x1A884, offset: 0x1A884, size: 0x8, addend: 0x0, symName: __ZNSt3__116allocator_traitsINS_9allocatorI10ChoiceMenuEEE8max_sizeB8ue170006IS3_vvEEmRKS3_, symObjAddr: 0xA2AC, symBinAddr: 0x10000B584, symSize: 0x28 }
  - { offsetInCU: 0x1A8AF, offset: 0x1A8AF, size: 0x8, addend: 0x0, symName: __ZNKSt3__16vectorI10ChoiceMenuNS_9allocatorIS1_EEE7__allocB8ue170006Ev, symObjAddr: 0xA2D4, symBinAddr: 0x10000B5AC, symSize: 0x28 }
  - { offsetInCU: 0x1A8D5, offset: 0x1A8D5, size: 0x8, addend: 0x0, symName: __ZNKSt3__117__compressed_pairIP10ChoiceMenuNS_9allocatorIS1_EEE6secondB8ue170006Ev, symObjAddr: 0xA2FC, symBinAddr: 0x10000B5D4, symSize: 0x24 }
  - { offsetInCU: 0x1A8FB, offset: 0x1A8FB, size: 0x8, addend: 0x0, symName: __ZNKSt3__122__compressed_pair_elemINS_9allocatorI10ChoiceMenuEELi1ELb1EE5__getB8ue170006Ev, symObjAddr: 0xA320, symBinAddr: 0x10000B5F8, symSize: 0x14 }
  - { offsetInCU: 0x1A921, offset: 0x1A921, size: 0x8, addend: 0x0, symName: __ZNSt3__19allocatorI10ChoiceMenuE8allocateB8ue170006Em, symObjAddr: 0xA334, symBinAddr: 0x10000B60C, symSize: 0x5C }
  - { offsetInCU: 0x1A955, offset: 0x1A955, size: 0x8, addend: 0x0, symName: __ZNSt3__117__compressed_pairIP10ChoiceMenuNS_9allocatorIS1_EEE6secondB8ue170006Ev, symObjAddr: 0xA390, symBinAddr: 0x10000B668, symSize: 0x24 }
  - { offsetInCU: 0x1A97B, offset: 0x1A97B, size: 0x8, addend: 0x0, symName: __ZNSt3__122__compressed_pair_elemINS_9allocatorI10ChoiceMenuEELi1ELb1EE5__getB8ue170006Ev, symObjAddr: 0xA3B4, symBinAddr: 0x10000B68C, symSize: 0x14 }
  - { offsetInCU: 0x1A9A1, offset: 0x1A9A1, size: 0x8, addend: 0x0, symName: __ZNSt3__117__compressed_pairIP10ChoiceMenuNS_9allocatorIS1_EEE5firstB8ue170006Ev, symObjAddr: 0xA3C8, symBinAddr: 0x10000B6A0, symSize: 0x24 }
  - { offsetInCU: 0x1A9C7, offset: 0x1A9C7, size: 0x8, addend: 0x0, symName: __ZNSt3__122__compressed_pair_elemIP10ChoiceMenuLi0ELb0EE5__getB8ue170006Ev, symObjAddr: 0xA3EC, symBinAddr: 0x10000B6C4, symSize: 0x14 }
  - { offsetInCU: 0x1A9ED, offset: 0x1A9ED, size: 0x8, addend: 0x0, symName: __ZNKSt3__16vectorI10ChoiceMenuNS_9allocatorIS1_EEE31__annotate_contiguous_containerB8ue170006EPKvS6_S6_S6_, symObjAddr: 0xA400, symBinAddr: 0x10000B6D8, symSize: 0x20 }
  - { offsetInCU: 0x1AA3F, offset: 0x1AA3F, size: 0x8, addend: 0x0, symName: __ZNKSt3__16vectorI10ChoiceMenuNS_9allocatorIS1_EEE4dataB8ue170006Ev, symObjAddr: 0xA420, symBinAddr: 0x10000B6F8, symSize: 0x28 }
  - { offsetInCU: 0x1AA65, offset: 0x1AA65, size: 0x8, addend: 0x0, symName: __ZNKSt3__16vectorI10ChoiceMenuNS_9allocatorIS1_EEE8capacityB8ue170006Ev, symObjAddr: 0xA448, symBinAddr: 0x10000B720, symSize: 0x40 }
  - { offsetInCU: 0x1AA8B, offset: 0x1AA8B, size: 0x8, addend: 0x0, symName: __ZNKSt3__16vectorI10ChoiceMenuNS_9allocatorIS1_EEE9__end_capB8ue170006Ev, symObjAddr: 0xA49C, symBinAddr: 0x10000B774, symSize: 0x28 }
  - { offsetInCU: 0x1AAB1, offset: 0x1AAB1, size: 0x8, addend: 0x0, symName: __ZNKSt3__117__compressed_pairIP10ChoiceMenuNS_9allocatorIS1_EEE5firstB8ue170006Ev, symObjAddr: 0xA4C4, symBinAddr: 0x10000B79C, symSize: 0x24 }
  - { offsetInCU: 0x1AAD7, offset: 0x1AAD7, size: 0x8, addend: 0x0, symName: __ZNKSt3__122__compressed_pair_elemIP10ChoiceMenuLi0ELb0EE5__getB8ue170006Ev, symObjAddr: 0xA4E8, symBinAddr: 0x10000B7C0, symSize: 0x14 }
  - { offsetInCU: 0x1AB16, offset: 0x1AB16, size: 0x8, addend: 0x0, symName: __ZNSt3__16vectorI10ChoiceMenuNS_9allocatorIS1_EEE21_ConstructTransactionC1B8ue170006ERS4_m, symObjAddr: 0xA4FC, symBinAddr: 0x10000B7D4, symSize: 0x3C }
  - { offsetInCU: 0x1AB5E, offset: 0x1AB5E, size: 0x8, addend: 0x0, symName: __ZNSt3__16vectorI10ChoiceMenuNS_9allocatorIS1_EEE21_ConstructTransactionD1B8ue170006Ev, symObjAddr: 0xA5B8, symBinAddr: 0x10000B890, symSize: 0x2C }
  - { offsetInCU: 0x1AB88, offset: 0x1AB88, size: 0x8, addend: 0x0, symName: __ZNSt3__16vectorI10ChoiceMenuNS_9allocatorIS1_EEE21_ConstructTransactionC2B8ue170006ERS4_m, symObjAddr: 0xA5E4, symBinAddr: 0x10000B8BC, symSize: 0x4C }
  - { offsetInCU: 0x1ABEA, offset: 0x1ABEA, size: 0x8, addend: 0x0, symName: __ZNSt3__119__unwrap_range_implIPK10ChoiceMenuS3_E8__unwrapB8ue170006ES3_S3_, symObjAddr: 0xA7C0, symBinAddr: 0x10000BA98, symSize: 0x58 }
  - { offsetInCU: 0x1AC21, offset: 0x1AC21, size: 0x8, addend: 0x0, symName: __ZNSt3__14pairIPK10ChoiceMenuS3_EC1B8ue170006IS3_S3_LPv0EEEOT_OT0_, symObjAddr: 0xA83C, symBinAddr: 0x10000BB14, symSize: 0x3C }
  - { offsetInCU: 0x1AC7F, offset: 0x1AC7F, size: 0x8, addend: 0x0, symName: __ZNSt3__118__unwrap_iter_implIPK10ChoiceMenuLb1EE8__unwrapB8ue170006ES3_, symObjAddr: 0xA878, symBinAddr: 0x10000BB50, symSize: 0x24 }
  - { offsetInCU: 0x1ACA2, offset: 0x1ACA2, size: 0x8, addend: 0x0, symName: __ZNSt3__14pairIPK10ChoiceMenuS3_EC2B8ue170006IS3_S3_LPv0EEEOT_OT0_, symObjAddr: 0xA8B0, symBinAddr: 0x10000BB88, symSize: 0x34 }
  - { offsetInCU: 0x1AD00, offset: 0x1AD00, size: 0x8, addend: 0x0, symName: __ZNSt3__129_AllocatorDestroyRangeReverseINS_9allocatorI10ChoiceMenuEEPS2_EC1B8ue170006ERS3_RS4_S7_, symObjAddr: 0xA930, symBinAddr: 0x10000BC08, symSize: 0x44 }
  - { offsetInCU: 0x1AD5C, offset: 0x1AD5C, size: 0x8, addend: 0x0, symName: __ZNSt3__116allocator_traitsINS_9allocatorI10ChoiceMenuEEE9constructB8ue170006IS2_JRKS2_EvvEEvRS3_PT_DpOT0_, symObjAddr: 0xA974, symBinAddr: 0x10000BC4C, symSize: 0x30 }
  - { offsetInCU: 0x1ADB0, offset: 0x1ADB0, size: 0x8, addend: 0x0, symName: __ZNSt3__128__exception_guard_exceptionsINS_29_AllocatorDestroyRangeReverseINS_9allocatorI10ChoiceMenuEEPS3_EEE10__completeB8ue170006Ev, symObjAddr: 0xA9A4, symBinAddr: 0x10000BC7C, symSize: 0x1C }
  - { offsetInCU: 0x1ADD6, offset: 0x1ADD6, size: 0x8, addend: 0x0, symName: __ZNSt3__128__exception_guard_exceptionsINS_29_AllocatorDestroyRangeReverseINS_9allocatorI10ChoiceMenuEEPS3_EEED1B8ue170006Ev, symObjAddr: 0xA9C0, symBinAddr: 0x10000BC98, symSize: 0x2C }
  - { offsetInCU: 0x1AE00, offset: 0x1AE00, size: 0x8, addend: 0x0, symName: __ZNSt3__128__exception_guard_exceptionsINS_29_AllocatorDestroyRangeReverseINS_9allocatorI10ChoiceMenuEEPS3_EEEC1B8ue170006ES6_, symObjAddr: 0xA9EC, symBinAddr: 0x10000BCC4, symSize: 0x34 }
  - { offsetInCU: 0x1AE39, offset: 0x1AE39, size: 0x8, addend: 0x0, symName: __ZNSt3__128__exception_guard_exceptionsINS_29_AllocatorDestroyRangeReverseINS_9allocatorI10ChoiceMenuEEPS3_EEEC2B8ue170006ES6_, symObjAddr: 0xAA20, symBinAddr: 0x10000BCF8, symSize: 0x30 }
  - { offsetInCU: 0x1AE72, offset: 0x1AE72, size: 0x8, addend: 0x0, symName: __ZNSt3__129_AllocatorDestroyRangeReverseINS_9allocatorI10ChoiceMenuEEPS2_EC2B8ue170006ERS3_RS4_S7_, symObjAddr: 0xAA50, symBinAddr: 0x10000BD28, symSize: 0x38 }
  - { offsetInCU: 0x1AEC9, offset: 0x1AEC9, size: 0x8, addend: 0x0, symName: __ZN10ChoiceMenuC1ERKS_, symObjAddr: 0xAAC4, symBinAddr: 0x10000BD9C, symSize: 0x34 }
  - { offsetInCU: 0x1AEFE, offset: 0x1AEFE, size: 0x8, addend: 0x0, symName: __ZN10ChoiceMenuC2ERKS_, symObjAddr: 0xAAF8, symBinAddr: 0x10000BDD0, symSize: 0x70 }
  - { offsetInCU: 0x1AF33, offset: 0x1AF33, size: 0x8, addend: 0x0, symName: __ZNSt3__16vectorI6ChoiceNS_9allocatorIS1_EEEC1ERKS4_, symObjAddr: 0xAB68, symBinAddr: 0x10000BE40, symSize: 0x34 }
  - { offsetInCU: 0x1AF6E, offset: 0x1AF6E, size: 0x8, addend: 0x0, symName: __ZNSt3__16vectorI6ChoiceNS_9allocatorIS1_EEEC2ERKS4_, symObjAddr: 0xAB9C, symBinAddr: 0x10000BE74, symSize: 0x94 }
  - { offsetInCU: 0x1AFA9, offset: 0x1AFA9, size: 0x8, addend: 0x0, symName: __ZNSt3__116allocator_traitsINS_9allocatorI6ChoiceEEE37select_on_container_copy_constructionB8ue170006IS3_vvEES3_RKS3_, symObjAddr: 0xAC30, symBinAddr: 0x10000BF08, symSize: 0x10 }
  - { offsetInCU: 0x1AFDE, offset: 0x1AFDE, size: 0x8, addend: 0x0, symName: __ZNSt3__117__compressed_pairIP6ChoiceNS_9allocatorIS1_EEEC1B8ue170006IDnS4_EEOT_OT0_, symObjAddr: 0xAC40, symBinAddr: 0x10000BF18, symSize: 0x3C }
  - { offsetInCU: 0x1B036, offset: 0x1B036, size: 0x8, addend: 0x0, symName: __ZNSt3__16vectorI6ChoiceNS_9allocatorIS1_EEE16__init_with_sizeB8ue170006IPS1_S6_EEvT_T0_m, symObjAddr: 0xAC7C, symBinAddr: 0x10000BF54, symSize: 0xB8 }
  - { offsetInCU: 0x1B0AA, offset: 0x1B0AA, size: 0x8, addend: 0x0, symName: __ZNSt3__117__compressed_pairIP6ChoiceNS_9allocatorIS1_EEEC2B8ue170006IDnS4_EEOT_OT0_, symObjAddr: 0xAD34, symBinAddr: 0x10000C00C, symSize: 0x44 }
  - { offsetInCU: 0x1B102, offset: 0x1B102, size: 0x8, addend: 0x0, symName: __ZNSt3__122__compressed_pair_elemINS_9allocatorI6ChoiceEELi1ELb1EEC2B8ue170006IS3_vEEOT_, symObjAddr: 0xAD78, symBinAddr: 0x10000C050, symSize: 0x18 }
  - { offsetInCU: 0x1B144, offset: 0x1B144, size: 0x8, addend: 0x0, symName: __ZNSt3__16vectorI6ChoiceNS_9allocatorIS1_EEE18__construct_at_endIPS1_S6_EEvT_T0_m, symObjAddr: 0xAD90, symBinAddr: 0x10000C068, symSize: 0x8C }
  - { offsetInCU: 0x1B1D4, offset: 0x1B1D4, size: 0x8, addend: 0x0, symName: __ZNSt3__119__unwrap_range_implIP6ChoiceS2_E8__unwrapB8ue170006ES2_S2_, symObjAddr: 0xAFCC, symBinAddr: 0x10000C2A4, symSize: 0x58 }
  - { offsetInCU: 0x1B20B, offset: 0x1B20B, size: 0x8, addend: 0x0, symName: __ZNSt3__14pairIP6ChoiceS2_EC1B8ue170006IS2_S2_LPv0EEEOT_OT0_, symObjAddr: 0xB024, symBinAddr: 0x10000C2FC, symSize: 0x3C }
  - { offsetInCU: 0x1B269, offset: 0x1B269, size: 0x8, addend: 0x0, symName: __ZNSt3__14pairIP6ChoiceS2_EC2B8ue170006IS2_S2_LPv0EEEOT_OT0_, symObjAddr: 0xB060, symBinAddr: 0x10000C338, symSize: 0x34 }
  - { offsetInCU: 0x1B2C7, offset: 0x1B2C7, size: 0x8, addend: 0x0, symName: __ZNSt3__116allocator_traitsINS_9allocatorI6ChoiceEEE9constructB8ue170006IS2_JRS2_EvvEEvRS3_PT_DpOT0_, symObjAddr: 0xB094, symBinAddr: 0x10000C36C, symSize: 0x30 }
  - { offsetInCU: 0x1B31B, offset: 0x1B31B, size: 0x8, addend: 0x0, symName: __ZNSt3__128__exception_guard_exceptionsINS_29_AllocatorDestroyRangeReverseINS_9allocatorI10ChoiceMenuEEPS3_EEED2B8ue170006Ev, symObjAddr: 0xB100, symBinAddr: 0x10000C3D8, symSize: 0x50 }
  - { offsetInCU: 0x1B345, offset: 0x1B345, size: 0x8, addend: 0x0, symName: __ZNKSt3__129_AllocatorDestroyRangeReverseINS_9allocatorI10ChoiceMenuEEPS2_EclB8ue170006Ev, symObjAddr: 0xB150, symBinAddr: 0x10000C428, symSize: 0x68 }
  - { offsetInCU: 0x1B36B, offset: 0x1B36B, size: 0x8, addend: 0x0, symName: __ZNSt3__116reverse_iteratorIP10ChoiceMenuEC1B8ue170006ES2_, symObjAddr: 0xB228, symBinAddr: 0x10000C500, symSize: 0x34 }
  - { offsetInCU: 0x1B3A3, offset: 0x1B3A3, size: 0x8, addend: 0x0, symName: __ZNSt3__116allocator_traitsINS_9allocatorI10ChoiceMenuEEE7destroyB8ue170006IS2_vvEEvRS3_PT_, symObjAddr: 0xB2A4, symBinAddr: 0x10000C57C, symSize: 0x28 }
  - { offsetInCU: 0x1B3DD, offset: 0x1B3DD, size: 0x8, addend: 0x0, symName: __ZNSt3__116reverse_iteratorIP10ChoiceMenuEppB8ue170006Ev, symObjAddr: 0xB2F0, symBinAddr: 0x10000C5C8, symSize: 0x20 }
  - { offsetInCU: 0x1B403, offset: 0x1B403, size: 0x8, addend: 0x0, symName: __ZNKSt3__116reverse_iteratorIP10ChoiceMenuE4baseB8ue170006Ev, symObjAddr: 0xB310, symBinAddr: 0x10000C5E8, symSize: 0x18 }
  - { offsetInCU: 0x1B42E, offset: 0x1B42E, size: 0x8, addend: 0x0, symName: __ZNSt3__119__to_address_helperINS_16reverse_iteratorIP10ChoiceMenuEEvE6__callB8ue170006ERKS4_, symObjAddr: 0xB370, symBinAddr: 0x10000C648, symSize: 0x38 }
  - { offsetInCU: 0x1B451, offset: 0x1B451, size: 0x8, addend: 0x0, symName: __ZNKSt3__116reverse_iteratorIP10ChoiceMenuEptB8ue170006Ev, symObjAddr: 0xB3A8, symBinAddr: 0x10000C680, symSize: 0x2C }
  - { offsetInCU: 0x1B477, offset: 0x1B477, size: 0x8, addend: 0x0, symName: __ZNSt3__116reverse_iteratorIP10ChoiceMenuEC2B8ue170006ES2_, symObjAddr: 0xB478, symBinAddr: 0x10000C750, symSize: 0x28 }
  - { offsetInCU: 0x1B4AF, offset: 0x1B4AF, size: 0x8, addend: 0x0, symName: __ZNSt3__118__unwrap_iter_implIP10ChoiceMenuLb1EE8__unwrapB8ue170006ES2_, symObjAddr: 0xB4A0, symBinAddr: 0x10000C778, symSize: 0x24 }
  - { offsetInCU: 0x1B4D2, offset: 0x1B4D2, size: 0x8, addend: 0x0, symName: __ZNSt3__118__unwrap_iter_implIP10ChoiceMenuLb1EE8__rewrapB8ue170006ES2_S2_, symObjAddr: 0xB4C4, symBinAddr: 0x10000C79C, symSize: 0x58 }
  - { offsetInCU: 0x1B503, offset: 0x1B503, size: 0x8, addend: 0x0, symName: __ZNSt3__16vectorI10ChoiceMenuNS_9allocatorIS1_EEE21_ConstructTransactionD2B8ue170006Ev, symObjAddr: 0xB51C, symBinAddr: 0x10000C7F4, symSize: 0x20 }
  - { offsetInCU: 0x1B52D, offset: 0x1B52D, size: 0x8, addend: 0x0, symName: __ZNSt3__128__exception_guard_exceptionsINS_6vectorI10ChoiceMenuNS_9allocatorIS2_EEE16__destroy_vectorEED2B8ue170006Ev, symObjAddr: 0xB53C, symBinAddr: 0x10000C814, symSize: 0x50 }
  - { offsetInCU: 0x1B557, offset: 0x1B557, size: 0x8, addend: 0x0, symName: __ZNSt3__16vectorI10ChoiceMenuNS_9allocatorIS1_EEE16__destroy_vectorclB8ue170006Ev, symObjAddr: 0xB58C, symBinAddr: 0x10000C864, symSize: 0x90 }
  - { offsetInCU: 0x1B57D, offset: 0x1B57D, size: 0x8, addend: 0x0, symName: __ZNSt3__16vectorI10ChoiceMenuNS_9allocatorIS1_EEE7__clearB8ue170006Ev, symObjAddr: 0xB61C, symBinAddr: 0x10000C8F4, symSize: 0x28 }
  - { offsetInCU: 0x1B5A3, offset: 0x1B5A3, size: 0x8, addend: 0x0, symName: __ZNKSt3__16vectorI10ChoiceMenuNS_9allocatorIS1_EEE17__annotate_deleteB8ue170006Ev, symObjAddr: 0xB644, symBinAddr: 0x10000C91C, symSize: 0xD4 }
  - { offsetInCU: 0x1B5C9, offset: 0x1B5C9, size: 0x8, addend: 0x0, symName: __ZNSt3__116allocator_traitsINS_9allocatorI10ChoiceMenuEEE10deallocateB8ue170006ERS3_PS2_m, symObjAddr: 0xB718, symBinAddr: 0x10000C9F0, symSize: 0x34 }
  - { offsetInCU: 0x1B60B, offset: 0x1B60B, size: 0x8, addend: 0x0, symName: __ZNSt3__16vectorI10ChoiceMenuNS_9allocatorIS1_EEE22__base_destruct_at_endB8ue170006EPS1_, symObjAddr: 0xB74C, symBinAddr: 0x10000CA24, symSize: 0x8C }
  - { offsetInCU: 0x1B64F, offset: 0x1B64F, size: 0x8, addend: 0x0, symName: __ZNKSt3__16vectorI10ChoiceMenuNS_9allocatorIS1_EEE4sizeB8ue170006Ev, symObjAddr: 0xB7D8, symBinAddr: 0x10000CAB0, symSize: 0x28 }
  - { offsetInCU: 0x1B675, offset: 0x1B675, size: 0x8, addend: 0x0, symName: __ZNSt3__19allocatorI10ChoiceMenuE10deallocateB8ue170006EPS1_m, symObjAddr: 0xB800, symBinAddr: 0x10000CAD8, symSize: 0x44 }
  - { offsetInCU: 0x1B6B7, offset: 0x1B6B7, size: 0x8, addend: 0x0, symName: __ZN10ChoiceMenuD2Ev, symObjAddr: 0xB844, symBinAddr: 0x10000CB1C, symSize: 0x38 }
  - { offsetInCU: 0x1B6E3, offset: 0x1B6E3, size: 0x8, addend: 0x0, symName: __ZNSt3__16vectorI6ChoiceNS_9allocatorIS1_EEED1B8ue170006Ev, symObjAddr: 0xB87C, symBinAddr: 0x10000CB54, symSize: 0x2C }
  - { offsetInCU: 0x1B70D, offset: 0x1B70D, size: 0x8, addend: 0x0, symName: __ZNSt3__16vectorI6ChoiceNS_9allocatorIS1_EEED2B8ue170006Ev, symObjAddr: 0xB8A8, symBinAddr: 0x10000CB80, symSize: 0x40 }
  - { offsetInCU: 0x1B737, offset: 0x1B737, size: 0x8, addend: 0x0, symName: __ZNSt3__16vectorI10ChoiceMenuNS_9allocatorIS1_EEED2B8ue170006Ev, symObjAddr: 0xB8E8, symBinAddr: 0x10000CBC0, symSize: 0x40 }
  - { offsetInCU: 0x1B77F, offset: 0x1B77F, size: 0x8, addend: 0x0, symName: __ZNKSt3__113basic_ostreamIcNS_11char_traitsIcEEE6sentrycvbB8ue170006Ev, symObjAddr: 0xBB14, symBinAddr: 0x10000CDEC, symSize: 0x1C }
  - { offsetInCU: 0x1B7A5, offset: 0x1B7A5, size: 0x8, addend: 0x0, symName: __ZNSt3__119ostreambuf_iteratorIcNS_11char_traitsIcEEEC1B8ue170006ERNS_13basic_ostreamIcS2_EE, symObjAddr: 0xBD70, symBinAddr: 0x10000D048, symSize: 0x34 }
  - { offsetInCU: 0x1B7DD, offset: 0x1B7DD, size: 0x8, addend: 0x0, symName: __ZNKSt3__18ios_base5flagsB8ue170006Ev, symObjAddr: 0xBDA4, symBinAddr: 0x10000D07C, symSize: 0x18 }
  - { offsetInCU: 0x1B805, offset: 0x1B805, size: 0x8, addend: 0x0, symName: __ZNKSt3__19basic_iosIcNS_11char_traitsIcEEE4fillB8ue170006Ev, symObjAddr: 0xBDBC, symBinAddr: 0x10000D094, symSize: 0x64 }
  - { offsetInCU: 0x1B82D, offset: 0x1B82D, size: 0x8, addend: 0x0, symName: __ZNKSt3__119ostreambuf_iteratorIcNS_11char_traitsIcEEE6failedB8ue170006Ev, symObjAddr: 0xBE20, symBinAddr: 0x10000D0F8, symSize: 0x24 }
  - { offsetInCU: 0x1B853, offset: 0x1B853, size: 0x8, addend: 0x0, symName: __ZNSt3__19basic_iosIcNS_11char_traitsIcEEE8setstateB8ue170006Ej, symObjAddr: 0xBE44, symBinAddr: 0x10000D11C, symSize: 0x2C }
  - { offsetInCU: 0x1B888, offset: 0x1B888, size: 0x8, addend: 0x0, symName: __ZNKSt3__18ios_base5widthB8ue170006Ev, symObjAddr: 0xBE70, symBinAddr: 0x10000D148, symSize: 0x18 }
  - { offsetInCU: 0x1B8B0, offset: 0x1B8B0, size: 0x8, addend: 0x0, symName: __ZNSt3__115basic_streambufIcNS_11char_traitsIcEEE5sputnB8ue170006EPKcl, symObjAddr: 0xBE88, symBinAddr: 0x10000D160, symSize: 0x3C }
  - { offsetInCU: 0x1B8F2, offset: 0x1B8F2, size: 0x8, addend: 0x0, symName: __ZNSt3__112basic_stringIcNS_11char_traitsIcEENS_9allocatorIcEEEC1B8ue170006Emc, symObjAddr: 0xBEC4, symBinAddr: 0x10000D19C, symSize: 0x3C }
  - { offsetInCU: 0x1B93A, offset: 0x1B93A, size: 0x8, addend: 0x0, symName: __ZNSt3__112basic_stringIcNS_11char_traitsIcEENS_9allocatorIcEEE4dataB8ue170006Ev, symObjAddr: 0xBF00, symBinAddr: 0x10000D1D8, symSize: 0x28 }
  - { offsetInCU: 0x1B960, offset: 0x1B960, size: 0x8, addend: 0x0, symName: __ZNSt3__18ios_base5widthB8ue170006El, symObjAddr: 0xBF28, symBinAddr: 0x10000D200, symSize: 0x2C }
  - { offsetInCU: 0x1B9A6, offset: 0x1B9A6, size: 0x8, addend: 0x0, symName: __ZNSt3__112basic_stringIcNS_11char_traitsIcEENS_9allocatorIcEEEC2B8ue170006Emc, symObjAddr: 0xBF54, symBinAddr: 0x10000D22C, symSize: 0x4C }
  - { offsetInCU: 0x1B9EE, offset: 0x1B9EE, size: 0x8, addend: 0x0, symName: __ZNSt3__112basic_stringIcNS_11char_traitsIcEENS_9allocatorIcEEE13__get_pointerB8ue170006Ev, symObjAddr: 0xBFB4, symBinAddr: 0x10000D28C, symSize: 0x54 }
  - { offsetInCU: 0x1BA14, offset: 0x1BA14, size: 0x8, addend: 0x0, symName: __ZNKSt3__112basic_stringIcNS_11char_traitsIcEENS_9allocatorIcEEE9__is_longB8ue170006Ev, symObjAddr: 0xC008, symBinAddr: 0x10000D2E0, symSize: 0x38 }
  - { offsetInCU: 0x1BA3A, offset: 0x1BA3A, size: 0x8, addend: 0x0, symName: __ZNSt3__112basic_stringIcNS_11char_traitsIcEENS_9allocatorIcEEE18__get_long_pointerB8ue170006Ev, symObjAddr: 0xC040, symBinAddr: 0x10000D318, symSize: 0x28 }
  - { offsetInCU: 0x1BA60, offset: 0x1BA60, size: 0x8, addend: 0x0, symName: __ZNSt3__112basic_stringIcNS_11char_traitsIcEENS_9allocatorIcEEE19__get_short_pointerB8ue170006Ev, symObjAddr: 0xC068, symBinAddr: 0x10000D340, symSize: 0x28 }
  - { offsetInCU: 0x1BA86, offset: 0x1BA86, size: 0x8, addend: 0x0, symName: __ZNKSt3__117__compressed_pairINS_12basic_stringIcNS_11char_traitsIcEENS_9allocatorIcEEE5__repES5_E5firstB8ue170006Ev, symObjAddr: 0xC090, symBinAddr: 0x10000D368, symSize: 0x24 }
  - { offsetInCU: 0x1BAAC, offset: 0x1BAAC, size: 0x8, addend: 0x0, symName: __ZNKSt3__122__compressed_pair_elemINS_12basic_stringIcNS_11char_traitsIcEENS_9allocatorIcEEE5__repELi0ELb0EE5__getB8ue170006Ev, symObjAddr: 0xC0B4, symBinAddr: 0x10000D38C, symSize: 0x14 }
  - { offsetInCU: 0x1BAD2, offset: 0x1BAD2, size: 0x8, addend: 0x0, symName: __ZNSt3__114pointer_traitsIPcE10pointer_toB8ue170006ERc, symObjAddr: 0xC0C8, symBinAddr: 0x10000D3A0, symSize: 0x14 }
  - { offsetInCU: 0x1BAF5, offset: 0x1BAF5, size: 0x8, addend: 0x0, symName: __ZNSt3__119ostreambuf_iteratorIcNS_11char_traitsIcEEEC2B8ue170006ERNS_13basic_ostreamIcS2_EE, symObjAddr: 0xC0DC, symBinAddr: 0x10000D3B4, symSize: 0x54 }
  - { offsetInCU: 0x1BB2D, offset: 0x1BB2D, size: 0x8, addend: 0x0, symName: __ZNKSt3__19basic_iosIcNS_11char_traitsIcEEE5rdbufB8ue170006Ev, symObjAddr: 0xC130, symBinAddr: 0x10000D408, symSize: 0x24 }
  - { offsetInCU: 0x1BB55, offset: 0x1BB55, size: 0x8, addend: 0x0, symName: __ZNKSt3__18ios_base5rdbufB8ue170006Ev, symObjAddr: 0xC154, symBinAddr: 0x10000D42C, symSize: 0x18 }
  - { offsetInCU: 0x1BB7B, offset: 0x1BB7B, size: 0x8, addend: 0x0, symName: __ZNSt3__111char_traitsIcE11eq_int_typeB8ue170006Eii, symObjAddr: 0xC16C, symBinAddr: 0x10000D444, symSize: 0x28 }
  - { offsetInCU: 0x1BBAE, offset: 0x1BBAE, size: 0x8, addend: 0x0, symName: __ZNSt3__111char_traitsIcE3eofB8ue170006Ev, symObjAddr: 0xC194, symBinAddr: 0x10000D46C, symSize: 0x8 }
  - { offsetInCU: 0x1BBC2, offset: 0x1BBC2, size: 0x8, addend: 0x0, symName: __ZNKSt3__19basic_iosIcNS_11char_traitsIcEEE5widenB8ue170006Ec, symObjAddr: 0xC19C, symBinAddr: 0x10000D474, symSize: 0x84 }
  - { offsetInCU: 0x1BC26, offset: 0x1BC26, size: 0x8, addend: 0x0, symName: __ZNKSt3__15ctypeIcE5widenB8ue170006Ec, symObjAddr: 0xC24C, symBinAddr: 0x10000D524, symSize: 0x38 }
  - { offsetInCU: 0x1BC5B, offset: 0x1BC5B, size: 0x8, addend: 0x0, symName: __ZNSt3__18ios_base8setstateB8ue170006Ej, symObjAddr: 0xC284, symBinAddr: 0x10000D55C, symSize: 0x34 }
  - { offsetInCU: 0x1BC92, offset: 0x1BC92, size: 0x8, addend: 0x0, symName: __ZNKSt3__112basic_stringIcNS_11char_traitsIcEENS_9allocatorIcEEE4dataB8ue170006Ev, symObjAddr: 0xC2B8, symBinAddr: 0x10000D590, symSize: 0x28 }
  - { offsetInCU: 0x1BCB8, offset: 0x1BCB8, size: 0x8, addend: 0x0, symName: __ZNKSt3__112basic_stringIcNS_11char_traitsIcEENS_9allocatorIcEEE4sizeB8ue170006Ev, symObjAddr: 0xC2E0, symBinAddr: 0x10000D5B8, symSize: 0x54 }
  - { offsetInCU: 0x1BCDE, offset: 0x1BCDE, size: 0x8, addend: 0x0, symName: __ZNKSt3__112basic_stringIcNS_11char_traitsIcEENS_9allocatorIcEEE13__get_pointerB8ue170006Ev, symObjAddr: 0xC348, symBinAddr: 0x10000D620, symSize: 0x54 }
  - { offsetInCU: 0x1BD04, offset: 0x1BD04, size: 0x8, addend: 0x0, symName: __ZNKSt3__112basic_stringIcNS_11char_traitsIcEENS_9allocatorIcEEE18__get_long_pointerB8ue170006Ev, symObjAddr: 0xC39C, symBinAddr: 0x10000D674, symSize: 0x28 }
  - { offsetInCU: 0x1BD2A, offset: 0x1BD2A, size: 0x8, addend: 0x0, symName: __ZNKSt3__112basic_stringIcNS_11char_traitsIcEENS_9allocatorIcEEE19__get_short_pointerB8ue170006Ev, symObjAddr: 0xC3C4, symBinAddr: 0x10000D69C, symSize: 0x28 }
  - { offsetInCU: 0x1BD50, offset: 0x1BD50, size: 0x8, addend: 0x0, symName: __ZNSt3__114pointer_traitsIPKcE10pointer_toB8ue170006ERS1_, symObjAddr: 0xC3EC, symBinAddr: 0x10000D6C4, symSize: 0x14 }
  - { offsetInCU: 0x1BD73, offset: 0x1BD73, size: 0x8, addend: 0x0, symName: __ZNKSt3__112basic_stringIcNS_11char_traitsIcEENS_9allocatorIcEEE15__get_long_sizeB8ue170006Ev, symObjAddr: 0xC400, symBinAddr: 0x10000D6D8, symSize: 0x28 }
  - { offsetInCU: 0x1BD99, offset: 0x1BD99, size: 0x8, addend: 0x0, symName: __ZNKSt3__112basic_stringIcNS_11char_traitsIcEENS_9allocatorIcEEE16__get_short_sizeB8ue170006Ev, symObjAddr: 0xC428, symBinAddr: 0x10000D700, symSize: 0x34 }
  - { offsetInCU: 0x1BDBF, offset: 0x1BDBF, size: 0x8, addend: 0x0, symName: __ZNSt3__16chrono8durationIxNS_5ratioILl1ELl1000EEEE4zeroB8ue170006Ev, symObjAddr: 0xC50C, symBinAddr: 0x10000D7E4, symSize: 0x3C }
  - { offsetInCU: 0x1BDE2, offset: 0x1BDE2, size: 0x8, addend: 0x0, symName: __ZNSt3__120_CmpUnspecifiedParamC1B8ue170006EMS0_i, symObjAddr: 0xC548, symBinAddr: 0x10000D820, symSize: 0x34 }
  - { offsetInCU: 0x1BE16, offset: 0x1BE16, size: 0x8, addend: 0x0, symName: __ZNSt3__16chrono8durationIxNS_5ratioILl1ELl1000000000EEEEppB8ue170006Ev, symObjAddr: 0xC76C, symBinAddr: 0x10000DA44, symSize: 0x20 }
  - { offsetInCU: 0x1BE3C, offset: 0x1BE3C, size: 0x8, addend: 0x0, symName: __ZNSt3__16chrono8durationIxNS_5ratioILl1ELl1000000000EEEE3maxB8ue170006Ev, symObjAddr: 0xC78C, symBinAddr: 0x10000DA64, symSize: 0x3C }
  - { offsetInCU: 0x1BE50, offset: 0x1BE50, size: 0x8, addend: 0x0, symName: __ZNKSt3__16chrono8durationIxNS_5ratioILl1ELl1000EEEE5countB8ue170006Ev, symObjAddr: 0xC7C8, symBinAddr: 0x10000DAA0, symSize: 0x18 }
  - { offsetInCU: 0x1BE76, offset: 0x1BE76, size: 0x8, addend: 0x0, symName: __ZNSt3__16chrono15duration_valuesIxE4zeroB8ue170006Ev, symObjAddr: 0xC7E0, symBinAddr: 0x10000DAB8, symSize: 0x8 }
  - { offsetInCU: 0x1BE94, offset: 0x1BE94, size: 0x8, addend: 0x0, symName: __ZNSt3__16chrono8durationIxNS_5ratioILl1ELl1000EEEEC1B8ue170006IxEERKT_PNS_9enable_ifIXaasr14is_convertibleIS8_xEE5valueooL_ZNS_17integral_constantIbLb0EE5valueEEntsr23treat_as_floating_pointIS6_EE5valueEvE4typeE, symObjAddr: 0xC7E8, symBinAddr: 0x10000DAC0, symSize: 0x3C }
  - { offsetInCU: 0x1BEE0, offset: 0x1BEE0, size: 0x8, addend: 0x0, symName: __ZNSt3__16chrono8durationIxNS_5ratioILl1ELl1000EEEEC2B8ue170006IxEERKT_PNS_9enable_ifIXaasr14is_convertibleIS8_xEE5valueooL_ZNS_17integral_constantIbLb0EE5valueEEntsr23treat_as_floating_pointIS6_EE5valueEvE4typeE, symObjAddr: 0xC824, symBinAddr: 0x10000DAFC, symSize: 0x28 }
  - { offsetInCU: 0x1BF2C, offset: 0x1BF2C, size: 0x8, addend: 0x0, symName: __ZNSt3__120_CmpUnspecifiedParamC2B8ue170006EMS0_i, symObjAddr: 0xC84C, symBinAddr: 0x10000DB24, symSize: 0x18 }
  - { offsetInCU: 0x1BF60, offset: 0x1BF60, size: 0x8, addend: 0x0, symName: __ZNKSt3__116partial_ordering12__is_orderedB8ue170006Ev, symObjAddr: 0xC864, symBinAddr: 0x10000DB3C, symSize: 0x24 }
  - { offsetInCU: 0x1BF86, offset: 0x1BF86, size: 0x8, addend: 0x0, symName: __ZNSt3__16chrono8durationIeNS_5ratioILl1ELl1000EEEEC1B8ue170006IxS3_EERKNS1_IT_T0_EEPNS_9enable_ifIXaasr13__no_overflowIS7_S3_EE5valueooL_ZNS_17integral_constantIbLb1EE5valueEEaaeqsr13__no_overflowIS7_S3_E4typeE3denLi1Entsr23treat_as_floating_pointIS6_EE5valueEvE4typeE, symObjAddr: 0xC888, symBinAddr: 0x10000DB60, symSize: 0x3C }
  - { offsetInCU: 0x1BFDC, offset: 0x1BFDC, size: 0x8, addend: 0x0, symName: __ZNKSt3__16chrono8durationIeNS_5ratioILl1ELl1000EEEE5countB8ue170006Ev, symObjAddr: 0xC8C4, symBinAddr: 0x10000DB9C, symSize: 0x18 }
  - { offsetInCU: 0x1C002, offset: 0x1C002, size: 0x8, addend: 0x0, symName: __ZNSt3__16chrono8durationIeNS_5ratioILl1ELl1000EEEEC1B8ue170006IeNS2_ILl1ELl1EEEEERKNS1_IT_T0_EEPNS_9enable_ifIXaasr13__no_overflowIS8_S3_EE5valueooL_ZNS_17integral_constantIbLb1EE5valueEEaaeqsr13__no_overflowIS8_S3_E4typeE3denLi1Entsr23treat_as_floating_pointIS7_EE5valueEvE4typeE, symObjAddr: 0xC8DC, symBinAddr: 0x10000DBB4, symSize: 0x3C }
  - { offsetInCU: 0x1C058, offset: 0x1C058, size: 0x8, addend: 0x0, symName: __ZNSt3__16chrono8durationIeNS_5ratioILl1ELl1000EEEEC2B8ue170006IxS3_EERKNS1_IT_T0_EEPNS_9enable_ifIXaasr13__no_overflowIS7_S3_EE5valueooL_ZNS_17integral_constantIbLb1EE5valueEEaaeqsr13__no_overflowIS7_S3_E4typeE3denLi1Entsr23treat_as_floating_pointIS6_EE5valueEvE4typeE, symObjAddr: 0xC918, symBinAddr: 0x10000DBF0, symSize: 0x48 }
  - { offsetInCU: 0x1C0B8, offset: 0x1C0B8, size: 0x8, addend: 0x0, symName: __ZNKSt3__16chrono15__duration_castINS0_8durationIxNS_5ratioILl1ELl1000EEEEENS2_IeS4_EENS3_ILl1ELl1EEELb1ELb1EEclB8ue170006ERKS5_, symObjAddr: 0xC990, symBinAddr: 0x10000DC68, symSize: 0x44 }
  - { offsetInCU: 0x1C0F6, offset: 0x1C0F6, size: 0x8, addend: 0x0, symName: __ZNSt3__16chrono8durationIeNS_5ratioILl1ELl1000EEEEC1B8ue170006IeEERKT_PNS_9enable_ifIXaasr14is_convertibleIS8_eEE5valueooL_ZNS_17integral_constantIbLb1EE5valueEEntsr23treat_as_floating_pointIS6_EE5valueEvE4typeE, symObjAddr: 0xC9D4, symBinAddr: 0x10000DCAC, symSize: 0x3C }
  - { offsetInCU: 0x1C142, offset: 0x1C142, size: 0x8, addend: 0x0, symName: __ZNSt3__16chrono8durationIeNS_5ratioILl1ELl1000EEEEC2B8ue170006IeEERKT_PNS_9enable_ifIXaasr14is_convertibleIS8_eEE5valueooL_ZNS_17integral_constantIbLb1EE5valueEEntsr23treat_as_floating_pointIS6_EE5valueEvE4typeE, symObjAddr: 0xCA10, symBinAddr: 0x10000DCE8, symSize: 0x28 }
  - { offsetInCU: 0x1C18E, offset: 0x1C18E, size: 0x8, addend: 0x0, symName: __ZNSt3__16chrono8durationIeNS_5ratioILl1ELl1000EEEEC2B8ue170006IeNS2_ILl1ELl1EEEEERKNS1_IT_T0_EEPNS_9enable_ifIXaasr13__no_overflowIS8_S3_EE5valueooL_ZNS_17integral_constantIbLb1EE5valueEEaaeqsr13__no_overflowIS8_S3_E4typeE3denLi1Entsr23treat_as_floating_pointIS7_EE5valueEvE4typeE, symObjAddr: 0xCA38, symBinAddr: 0x10000DD10, symSize: 0x48 }
  - { offsetInCU: 0x1C1E4, offset: 0x1C1E4, size: 0x8, addend: 0x0, symName: __ZNKSt3__16chrono8durationIeNS_5ratioILl1ELl1EEEE5countB8ue170006Ev, symObjAddr: 0xCAFC, symBinAddr: 0x10000DDD4, symSize: 0x18 }
  - { offsetInCU: 0x1C20A, offset: 0x1C20A, size: 0x8, addend: 0x0, symName: __ZNSt3__16chrono8durationIxNS_5ratioILl1ELl1000000000EEEEC1B8ue170006IxEERKT_PNS_9enable_ifIXaasr14is_convertibleIS8_xEE5valueooL_ZNS_17integral_constantIbLb0EE5valueEEntsr23treat_as_floating_pointIS6_EE5valueEvE4typeE, symObjAddr: 0xCB60, symBinAddr: 0x10000DE38, symSize: 0x3C }
  - { offsetInCU: 0x1C256, offset: 0x1C256, size: 0x8, addend: 0x0, symName: __ZNSt3__16chrono8durationIxNS_5ratioILl1ELl1000000000EEEEC2B8ue170006IxEERKT_PNS_9enable_ifIXaasr14is_convertibleIS8_xEE5valueooL_ZNS_17integral_constantIbLb0EE5valueEEntsr23treat_as_floating_pointIS6_EE5valueEvE4typeE, symObjAddr: 0xCB9C, symBinAddr: 0x10000DE74, symSize: 0x28 }
  - { offsetInCU: 0x1C2A2, offset: 0x1C2A2, size: 0x8, addend: 0x0, symName: __ZNKSt3__16chrono8durationIxNS_5ratioILl1ELl1000000000EEEE5countB8ue170006Ev, symObjAddr: 0xCBC4, symBinAddr: 0x10000DE9C, symSize: 0x18 }
  - { offsetInCU: 0x1C2C8, offset: 0x1C2C8, size: 0x8, addend: 0x0, symName: __ZNSt3__16chrono8durationIxNS_5ratioILl1ELl1000000000EEEEC1B8ue170006IxNS2_ILl1ELl1000EEEEERKNS1_IT_T0_EEPNS_9enable_ifIXaasr13__no_overflowIS8_S3_EE5valueooL_ZNS_17integral_constantIbLb0EE5valueEEaaeqsr13__no_overflowIS8_S3_E4typeE3denLi1Entsr23treat_as_floating_pointIS7_EE5valueEvE4typeE, symObjAddr: 0xCBDC, symBinAddr: 0x10000DEB4, symSize: 0x3C }
  - { offsetInCU: 0x1C31E, offset: 0x1C31E, size: 0x8, addend: 0x0, symName: __ZNSt3__16chrono8durationIxNS_5ratioILl1ELl1000000000EEEEC2B8ue170006IxNS2_ILl1ELl1000EEEEERKNS1_IT_T0_EEPNS_9enable_ifIXaasr13__no_overflowIS8_S3_EE5valueooL_ZNS_17integral_constantIbLb0EE5valueEEaaeqsr13__no_overflowIS8_S3_E4typeE3denLi1Entsr23treat_as_floating_pointIS7_EE5valueEvE4typeE, symObjAddr: 0xCC18, symBinAddr: 0x10000DEF0, symSize: 0x50 }
  - { offsetInCU: 0x1C374, offset: 0x1C374, size: 0x8, addend: 0x0, symName: __ZNSt3__16chrono15duration_valuesIxE3maxB8ue170006Ev, symObjAddr: 0xCC68, symBinAddr: 0x10000DF40, symSize: 0x14 }
  - { offsetInCU: 0x1C388, offset: 0x1C388, size: 0x8, addend: 0x0, symName: __ZNSt3__114numeric_limitsIxE3maxB8ue170006Ev, symObjAddr: 0xCC7C, symBinAddr: 0x10000DF54, symSize: 0x14 }
  - { offsetInCU: 0x1C39C, offset: 0x1C39C, size: 0x8, addend: 0x0, symName: __ZNSt3__123__libcpp_numeric_limitsIxLb1EE3maxB8ue170006Ev, symObjAddr: 0xCC90, symBinAddr: 0x10000DF68, symSize: 0x8 }
  - { offsetInCU: 0x1C444, offset: 0x1C444, size: 0x8, addend: 0x0, symName: __ZNKSt3__113basic_istreamIcNS_11char_traitsIcEEE6sentrycvbB8ue170006Ev, symObjAddr: 0xCC98, symBinAddr: 0x10000DF70, symSize: 0x1C }
  - { offsetInCU: 0x1C46A, offset: 0x1C46A, size: 0x8, addend: 0x0, symName: __ZNSt3__112basic_stringIcNS_11char_traitsIcEENS_9allocatorIcEEE5clearB8ue170006Ev, symObjAddr: 0xCCB4, symBinAddr: 0x10000DF8C, symSize: 0x78 }
  - { offsetInCU: 0x1C492, offset: 0x1C492, size: 0x8, addend: 0x0, symName: __ZNKSt3__112basic_stringIcNS_11char_traitsIcEENS_9allocatorIcEEE8max_sizeB8ue170006Ev, symObjAddr: 0xCD2C, symBinAddr: 0x10000E004, symSize: 0xAC }
  - { offsetInCU: 0x1C4E4, offset: 0x1C4E4, size: 0x8, addend: 0x0, symName: __ZNSt3__115basic_streambufIcNS_11char_traitsIcEEE5sgetcB8ue170006Ev, symObjAddr: 0xCDD8, symBinAddr: 0x10000E0B0, symSize: 0x70 }
  - { offsetInCU: 0x1C50A, offset: 0x1C50A, size: 0x8, addend: 0x0, symName: __ZNSt3__111char_traitsIcE12to_char_typeB8ue170006Ei, symObjAddr: 0xCE48, symBinAddr: 0x10000E120, symSize: 0x18 }
  - { offsetInCU: 0x1C52D, offset: 0x1C52D, size: 0x8, addend: 0x0, symName: __ZNKSt3__15ctypeIcE2isB8ue170006Ejc, symObjAddr: 0xCE60, symBinAddr: 0x10000E138, symSize: 0x7C }
  - { offsetInCU: 0x1C571, offset: 0x1C571, size: 0x8, addend: 0x0, symName: __ZNSt3__115basic_streambufIcNS_11char_traitsIcEEE6sbumpcB8ue170006Ev, symObjAddr: 0xCEDC, symBinAddr: 0x10000E1B4, symSize: 0x78 }
  - { offsetInCU: 0x1C597, offset: 0x1C597, size: 0x8, addend: 0x0, symName: __ZNSt3__18ios_base18__setstate_nothrowB8ue170006Ej, symObjAddr: 0xCF54, symBinAddr: 0x10000E22C, symSize: 0x64 }
  - { offsetInCU: 0x1C5CC, offset: 0x1C5CC, size: 0x8, addend: 0x0, symName: __ZNKSt3__19basic_iosIcNS_11char_traitsIcEEE10exceptionsB8ue170006Ev, symObjAddr: 0xCFB8, symBinAddr: 0x10000E290, symSize: 0x24 }
  - { offsetInCU: 0x1C5F2, offset: 0x1C5F2, size: 0x8, addend: 0x0, symName: __ZNSt3__111char_traitsIcE6assignB8ue170006ERcRKc, symObjAddr: 0xCFDC, symBinAddr: 0x10000E2B4, symSize: 0x24 }
  - { offsetInCU: 0x1C623, offset: 0x1C623, size: 0x8, addend: 0x0, symName: __ZNSt3__112basic_stringIcNS_11char_traitsIcEENS_9allocatorIcEEE15__set_long_sizeB8ue170006Em, symObjAddr: 0xD000, symBinAddr: 0x10000E2D8, symSize: 0x38 }
  - { offsetInCU: 0x1C658, offset: 0x1C658, size: 0x8, addend: 0x0, symName: __ZNSt3__112basic_stringIcNS_11char_traitsIcEENS_9allocatorIcEEE16__set_short_sizeB8ue170006Em, symObjAddr: 0xD038, symBinAddr: 0x10000E310, symSize: 0x78 }
  - { offsetInCU: 0x1C697, offset: 0x1C697, size: 0x8, addend: 0x0, symName: __ZNSt3__116allocator_traitsINS_9allocatorIcEEE8max_sizeB8ue170006IS2_vvEEmRKS2_, symObjAddr: 0xD0B0, symBinAddr: 0x10000E388, symSize: 0x28 }
  - { offsetInCU: 0x1C6C2, offset: 0x1C6C2, size: 0x8, addend: 0x0, symName: __ZNKSt3__112basic_stringIcNS_11char_traitsIcEENS_9allocatorIcEEE7__allocB8ue170006Ev, symObjAddr: 0xD0D8, symBinAddr: 0x10000E3B0, symSize: 0x24 }
  - { offsetInCU: 0x1C6E8, offset: 0x1C6E8, size: 0x8, addend: 0x0, symName: __ZNKSt3__117__compressed_pairINS_12basic_stringIcNS_11char_traitsIcEENS_9allocatorIcEEE5__repES5_E6secondB8ue170006Ev, symObjAddr: 0xD0FC, symBinAddr: 0x10000E3D4, symSize: 0x24 }
  - { offsetInCU: 0x1C70E, offset: 0x1C70E, size: 0x8, addend: 0x0, symName: __ZNKSt3__122__compressed_pair_elemINS_9allocatorIcEELi1ELb1EE5__getB8ue170006Ev, symObjAddr: 0xD120, symBinAddr: 0x10000E3F8, symSize: 0x14 }
  - { offsetInCU: 0x1C734, offset: 0x1C734, size: 0x8, addend: 0x0, symName: __ZNSt3__111char_traitsIcE11to_int_typeB8ue170006Ec, symObjAddr: 0xD134, symBinAddr: 0x10000E40C, symSize: 0x14 }
  - { offsetInCU: 0x1C757, offset: 0x1C757, size: 0x8, addend: 0x0, symName: __Z7isasciii, symObjAddr: 0xD148, symBinAddr: 0x10000E420, symSize: 0x24 }
  - { offsetInCU: 0x1C784, offset: 0x1C784, size: 0x8, addend: 0x0, symName: __ZNKSt3__18ios_base10exceptionsB8ue170006Ev, symObjAddr: 0xD16C, symBinAddr: 0x10000E444, symSize: 0x18 }
...
